
coreMemory.elf:     file format elf32-littleriscv


Disassembly of section .text:

14000000 <_start>:
14000000:	00000517          	auipc	a0,0x0
14000004:	07450513          	addi	a0,a0,116 # 14000074 <_trap>
14000008:	30551073          	csrw	mtvec,a0
1400000c:	ec000197          	auipc	gp,0xec000
14000010:	7f418193          	addi	gp,gp,2036 # 800 <_global_pointer$>
14000014:	ec001117          	auipc	sp,0xec001
14000018:	fec10113          	addi	sp,sp,-20 # 1000 <_stack_top>
1400001c:	00010433          	add	s0,sp,zero
14000020:	00000517          	auipc	a0,0x0
14000024:	70c50513          	addi	a0,a0,1804 # 1400072c <_etext>
14000028:	ec000597          	auipc	a1,0xec000
1400002c:	fd858593          	addi	a1,a1,-40 # 0 <testInstructionsInSRAM>
14000030:	ec000617          	auipc	a2,0xec000
14000034:	5b060613          	addi	a2,a2,1456 # 5e0 <_ebss>
14000038:	00c5dc63          	bge	a1,a2,14000050 <end_init_data>

1400003c <loop_init_data>:
1400003c:	00052683          	lw	a3,0(a0)
14000040:	00d5a023          	sw	a3,0(a1)
14000044:	00450513          	addi	a0,a0,4
14000048:	00458593          	addi	a1,a1,4
1400004c:	fec5c8e3          	blt	a1,a2,1400003c <loop_init_data>

14000050 <end_init_data>:
14000050:	5e000513          	li	a0,1504
14000054:	5e000593          	li	a1,1504
14000058:	00b55863          	bge	a0,a1,14000068 <end_init_bss>

1400005c <loop_init_bss>:
1400005c:	00052023          	sw	zero,0(a0)
14000060:	00450513          	addi	a0,a0,4
14000064:	feb54ce3          	blt	a0,a1,1400005c <loop_init_bss>

14000068 <end_init_bss>:
14000068:	5e0000ef          	jal	ra,14000648 <main>
1400006c:	00100073          	ebreak

14000070 <_exit>:
14000070:	000000ef          	jal	ra,14000070 <_exit>

14000074 <_trap>:
14000074:	0000006f          	j	14000074 <_trap>

14000078 <flashData>:
14000078:	12345678 deadbeef abcdef01 0f1e2d3c     xV4.........<-..

14000088 <flashString>:
14000088:	6c6c6548 6f77206f 21646c72 00000000     Hello world!....

14000098 <digitalWrite>:
14000098:	00b52023          	sw	a1,0(a0)
1400009c:	00008067          	ret

140000a0 <setupTests>:
140000a0:	ff010113          	addi	sp,sp,-16
140000a4:	00112623          	sw	ra,12(sp)
140000a8:	000015b7          	lui	a1,0x1
140000ac:	13031537          	lui	a0,0x13031
140000b0:	01050513          	addi	a0,a0,16 # 13031010 <_stack_top+0x13030010>
140000b4:	fe5ff0ef          	jal	ra,14000098 <digitalWrite>
140000b8:	00c12083          	lw	ra,12(sp)
140000bc:	01010113          	addi	sp,sp,16
140000c0:	00008067          	ret

140000c4 <testPass>:
140000c4:	ff010113          	addi	sp,sp,-16
140000c8:	00112623          	sw	ra,12(sp)
140000cc:	00812423          	sw	s0,8(sp)
140000d0:	000035b7          	lui	a1,0x3
140000d4:	13031437          	lui	s0,0x13031
140000d8:	01440513          	addi	a0,s0,20 # 13031014 <_stack_top+0x13030014>
140000dc:	fbdff0ef          	jal	ra,14000098 <digitalWrite>
140000e0:	000025b7          	lui	a1,0x2
140000e4:	01840513          	addi	a0,s0,24
140000e8:	fb1ff0ef          	jal	ra,14000098 <digitalWrite>
140000ec:	00c12083          	lw	ra,12(sp)
140000f0:	00812403          	lw	s0,8(sp)
140000f4:	01010113          	addi	sp,sp,16
140000f8:	00008067          	ret

140000fc <testFail>:
140000fc:	ff010113          	addi	sp,sp,-16
14000100:	00112623          	sw	ra,12(sp)
14000104:	00812423          	sw	s0,8(sp)
14000108:	000015b7          	lui	a1,0x1
1400010c:	13031437          	lui	s0,0x13031
14000110:	01840513          	addi	a0,s0,24 # 13031018 <_stack_top+0x13030018>
14000114:	f85ff0ef          	jal	ra,14000098 <digitalWrite>
14000118:	000025b7          	lui	a1,0x2
1400011c:	01440513          	addi	a0,s0,20
14000120:	f79ff0ef          	jal	ra,14000098 <digitalWrite>
14000124:	0000006f          	j	14000124 <testFail+0x28>

14000128 <assert>:
14000128:	ff010113          	addi	sp,sp,-16
1400012c:	00112623          	sw	ra,12(sp)
14000130:	00050a63          	beqz	a0,14000144 <assert+0x1c>
14000134:	f91ff0ef          	jal	ra,140000c4 <testPass>
14000138:	00c12083          	lw	ra,12(sp)
1400013c:	01010113          	addi	sp,sp,16
14000140:	00008067          	ret
14000144:	fb9ff0ef          	jal	ra,140000fc <testFail>

14000148 <testInstructionsInFlash>:
14000148:	f9010113          	addi	sp,sp,-112
1400014c:	06112623          	sw	ra,108(sp)
14000150:	06812423          	sw	s0,104(sp)
14000154:	06912223          	sw	s1,100(sp)
14000158:	07212023          	sw	s2,96(sp)
1400015c:	05312e23          	sw	s3,92(sp)
14000160:	05412c23          	sw	s4,88(sp)
14000164:	05512a23          	sw	s5,84(sp)
14000168:	05612823          	sw	s6,80(sp)
1400016c:	05712623          	sw	s7,76(sp)
14000170:	05812423          	sw	s8,72(sp)
14000174:	05912223          	sw	s9,68(sp)
14000178:	05a12023          	sw	s10,64(sp)
1400017c:	03b12e23          	sw	s11,60(sp)
14000180:	00000693          	li	a3,0
14000184:	02c0006f          	j	140001b0 <testInstructionsInFlash+0x68>
14000188:	00269713          	slli	a4,a3,0x2
1400018c:	140007b7          	lui	a5,0x14000
14000190:	07878793          	addi	a5,a5,120 # 14000078 <flashData>
14000194:	00e787b3          	add	a5,a5,a4
14000198:	0007a783          	lw	a5,0(a5)
1400019c:	02070713          	addi	a4,a4,32
140001a0:	01010613          	addi	a2,sp,16
140001a4:	00c70733          	add	a4,a4,a2
140001a8:	fef72823          	sw	a5,-16(a4)
140001ac:	00168693          	addi	a3,a3,1
140001b0:	00300793          	li	a5,3
140001b4:	fcd7dae3          	bge	a5,a3,14000188 <testInstructionsInFlash+0x40>
140001b8:	00000713          	li	a4,0
140001bc:	0280006f          	j	140001e4 <testInstructionsInFlash+0x9c>
140001c0:	140007b7          	lui	a5,0x14000
140001c4:	08878793          	addi	a5,a5,136 # 14000088 <flashString>
140001c8:	00e787b3          	add	a5,a5,a4
140001cc:	0007c683          	lbu	a3,0(a5)
140001d0:	02070793          	addi	a5,a4,32
140001d4:	01010613          	addi	a2,sp,16
140001d8:	00c787b3          	add	a5,a5,a2
140001dc:	fed78223          	sb	a3,-28(a5)
140001e0:	00170713          	addi	a4,a4,1
140001e4:	00b00793          	li	a5,11
140001e8:	fce7dce3          	bge	a5,a4,140001c0 <testInstructionsInFlash+0x78>
140001ec:	02012503          	lw	a0,32(sp)
140001f0:	edcbbdb7          	lui	s11,0xedcbb
140001f4:	988d8d93          	addi	s11,s11,-1656 # edcba988 <_etext+0xd9cba25c>
140001f8:	01b50533          	add	a0,a0,s11
140001fc:	00153513          	seqz	a0,a0
14000200:	f29ff0ef          	jal	ra,14000128 <assert>
14000204:	02412503          	lw	a0,36(sp)
14000208:	21524d37          	lui	s10,0x21524
1400020c:	111d0d13          	addi	s10,s10,273 # 21524111 <_etext+0xd5239e5>
14000210:	01a50533          	add	a0,a0,s10
14000214:	00153513          	seqz	a0,a0
14000218:	f11ff0ef          	jal	ra,14000128 <assert>
1400021c:	02812503          	lw	a0,40(sp)
14000220:	54321cb7          	lui	s9,0x54321
14000224:	0ffc8c93          	addi	s9,s9,255 # 543210ff <_etext+0x403209d3>
14000228:	01950533          	add	a0,a0,s9
1400022c:	00153513          	seqz	a0,a0
14000230:	ef9ff0ef          	jal	ra,14000128 <assert>
14000234:	02c12503          	lw	a0,44(sp)
14000238:	f0e1dc37          	lui	s8,0xf0e1d
1400023c:	2c4c0c13          	addi	s8,s8,708 # f0e1d2c4 <_etext+0xdce1cb98>
14000240:	01850533          	add	a0,a0,s8
14000244:	00153513          	seqz	a0,a0
14000248:	ee1ff0ef          	jal	ra,14000128 <assert>
1400024c:	02015503          	lhu	a0,32(sp)
14000250:	ffffb937          	lui	s2,0xffffb
14000254:	98890913          	addi	s2,s2,-1656 # ffffa988 <_etext+0xebffa25c>
14000258:	01250533          	add	a0,a0,s2
1400025c:	00153513          	seqz	a0,a0
14000260:	ec9ff0ef          	jal	ra,14000128 <assert>
14000264:	02215503          	lhu	a0,34(sp)
14000268:	fffff4b7          	lui	s1,0xfffff
1400026c:	dcc48493          	addi	s1,s1,-564 # ffffedcc <_etext+0xebffe6a0>
14000270:	00950533          	add	a0,a0,s1
14000274:	00153513          	seqz	a0,a0
14000278:	eb1ff0ef          	jal	ra,14000128 <assert>
1400027c:	02415503          	lhu	a0,36(sp)
14000280:	ffff4bb7          	lui	s7,0xffff4
14000284:	111b8b93          	addi	s7,s7,273 # ffff4111 <_etext+0xebff39e5>
14000288:	01750533          	add	a0,a0,s7
1400028c:	00153513          	seqz	a0,a0
14000290:	e99ff0ef          	jal	ra,14000128 <assert>
14000294:	02615503          	lhu	a0,38(sp)
14000298:	ffff2b37          	lui	s6,0xffff2
1400029c:	153b0b13          	addi	s6,s6,339 # ffff2153 <_etext+0xebff1a27>
140002a0:	01650533          	add	a0,a0,s6
140002a4:	00153513          	seqz	a0,a0
140002a8:	e81ff0ef          	jal	ra,14000128 <assert>
140002ac:	02015503          	lhu	a0,32(sp)
140002b0:	01051513          	slli	a0,a0,0x10
140002b4:	41055513          	srai	a0,a0,0x10
140002b8:	01250533          	add	a0,a0,s2
140002bc:	00153513          	seqz	a0,a0
140002c0:	e69ff0ef          	jal	ra,14000128 <assert>
140002c4:	02215503          	lhu	a0,34(sp)
140002c8:	01051513          	slli	a0,a0,0x10
140002cc:	41055513          	srai	a0,a0,0x10
140002d0:	00950533          	add	a0,a0,s1
140002d4:	00153513          	seqz	a0,a0
140002d8:	e51ff0ef          	jal	ra,14000128 <assert>
140002dc:	02415503          	lhu	a0,36(sp)
140002e0:	01051513          	slli	a0,a0,0x10
140002e4:	41055513          	srai	a0,a0,0x10
140002e8:	00004ab7          	lui	s5,0x4
140002ec:	111a8a93          	addi	s5,s5,273 # 4111 <_stack_top+0x3111>
140002f0:	01550533          	add	a0,a0,s5
140002f4:	00153513          	seqz	a0,a0
140002f8:	e31ff0ef          	jal	ra,14000128 <assert>
140002fc:	02615503          	lhu	a0,38(sp)
14000300:	01051513          	slli	a0,a0,0x10
14000304:	41055513          	srai	a0,a0,0x10
14000308:	00002a37          	lui	s4,0x2
1400030c:	153a0a13          	addi	s4,s4,339 # 2153 <_stack_top+0x1153>
14000310:	01450533          	add	a0,a0,s4
14000314:	00153513          	seqz	a0,a0
14000318:	e11ff0ef          	jal	ra,14000128 <assert>
1400031c:	02114503          	lbu	a0,33(sp)
14000320:	02214783          	lbu	a5,34(sp)
14000324:	00879793          	slli	a5,a5,0x8
14000328:	00f56533          	or	a0,a0,a5
1400032c:	ffffd9b7          	lui	s3,0xffffd
14000330:	baa98993          	addi	s3,s3,-1110 # ffffcbaa <_etext+0xebffc47e>
14000334:	01350533          	add	a0,a0,s3
14000338:	00153513          	seqz	a0,a0
1400033c:	dedff0ef          	jal	ra,14000128 <assert>
14000340:	02314503          	lbu	a0,35(sp)
14000344:	02414783          	lbu	a5,36(sp)
14000348:	00879793          	slli	a5,a5,0x8
1400034c:	00f56533          	or	a0,a0,a5
14000350:	ffff17b7          	lui	a5,0xffff1
14000354:	0ee78793          	addi	a5,a5,238 # ffff10ee <_etext+0xebff09c2>
14000358:	00f12423          	sw	a5,8(sp)
1400035c:	00f50533          	add	a0,a0,a5
14000360:	00153513          	seqz	a0,a0
14000364:	dc5ff0ef          	jal	ra,14000128 <assert>
14000368:	02514503          	lbu	a0,37(sp)
1400036c:	02614783          	lbu	a5,38(sp)
14000370:	00879793          	slli	a5,a5,0x8
14000374:	00f56533          	or	a0,a0,a5
14000378:	ffff57b7          	lui	a5,0xffff5
1400037c:	24278713          	addi	a4,a5,578 # ffff5242 <_etext+0xebff4b16>
14000380:	00e12623          	sw	a4,12(sp)
14000384:	00e50533          	add	a0,a0,a4
14000388:	00153513          	seqz	a0,a0
1400038c:	d9dff0ef          	jal	ra,14000128 <assert>
14000390:	02714503          	lbu	a0,39(sp)
14000394:	02814783          	lbu	a5,40(sp)
14000398:	00879793          	slli	a5,a5,0x8
1400039c:	00f56533          	or	a0,a0,a5
140003a0:	e2250513          	addi	a0,a0,-478
140003a4:	00153513          	seqz	a0,a0
140003a8:	d81ff0ef          	jal	ra,14000128 <assert>
140003ac:	01414503          	lbu	a0,20(sp)
140003b0:	fb850513          	addi	a0,a0,-72
140003b4:	00153513          	seqz	a0,a0
140003b8:	d71ff0ef          	jal	ra,14000128 <assert>
140003bc:	01514503          	lbu	a0,21(sp)
140003c0:	f9b50513          	addi	a0,a0,-101
140003c4:	00153513          	seqz	a0,a0
140003c8:	d61ff0ef          	jal	ra,14000128 <assert>
140003cc:	01614503          	lbu	a0,22(sp)
140003d0:	f9450513          	addi	a0,a0,-108
140003d4:	00153513          	seqz	a0,a0
140003d8:	d51ff0ef          	jal	ra,14000128 <assert>
140003dc:	01814503          	lbu	a0,24(sp)
140003e0:	f9150513          	addi	a0,a0,-111
140003e4:	00153513          	seqz	a0,a0
140003e8:	d41ff0ef          	jal	ra,14000128 <assert>
140003ec:	01a14503          	lbu	a0,26(sp)
140003f0:	f8950513          	addi	a0,a0,-119
140003f4:	00153513          	seqz	a0,a0
140003f8:	d31ff0ef          	jal	ra,14000128 <assert>
140003fc:	01b14503          	lbu	a0,27(sp)
14000400:	f9150513          	addi	a0,a0,-111
14000404:	00153513          	seqz	a0,a0
14000408:	d21ff0ef          	jal	ra,14000128 <assert>
1400040c:	01d14503          	lbu	a0,29(sp)
14000410:	f9450513          	addi	a0,a0,-108
14000414:	00153513          	seqz	a0,a0
14000418:	d11ff0ef          	jal	ra,14000128 <assert>
1400041c:	01f14503          	lbu	a0,31(sp)
14000420:	fdf50513          	addi	a0,a0,-33
14000424:	00153513          	seqz	a0,a0
14000428:	d01ff0ef          	jal	ra,14000128 <assert>
1400042c:	5c000413          	li	s0,1472
14000430:	00042503          	lw	a0,0(s0)
14000434:	01b50533          	add	a0,a0,s11
14000438:	00153513          	seqz	a0,a0
1400043c:	cedff0ef          	jal	ra,14000128 <assert>
14000440:	00442503          	lw	a0,4(s0)
14000444:	01a50533          	add	a0,a0,s10
14000448:	00153513          	seqz	a0,a0
1400044c:	cddff0ef          	jal	ra,14000128 <assert>
14000450:	00842503          	lw	a0,8(s0)
14000454:	01950533          	add	a0,a0,s9
14000458:	00153513          	seqz	a0,a0
1400045c:	ccdff0ef          	jal	ra,14000128 <assert>
14000460:	00c42503          	lw	a0,12(s0)
14000464:	01850533          	add	a0,a0,s8
14000468:	00153513          	seqz	a0,a0
1400046c:	cbdff0ef          	jal	ra,14000128 <assert>
14000470:	00045503          	lhu	a0,0(s0)
14000474:	01250533          	add	a0,a0,s2
14000478:	00153513          	seqz	a0,a0
1400047c:	cadff0ef          	jal	ra,14000128 <assert>
14000480:	00245503          	lhu	a0,2(s0)
14000484:	00950533          	add	a0,a0,s1
14000488:	00153513          	seqz	a0,a0
1400048c:	c9dff0ef          	jal	ra,14000128 <assert>
14000490:	00445503          	lhu	a0,4(s0)
14000494:	01750533          	add	a0,a0,s7
14000498:	00153513          	seqz	a0,a0
1400049c:	c8dff0ef          	jal	ra,14000128 <assert>
140004a0:	00645503          	lhu	a0,6(s0)
140004a4:	01650533          	add	a0,a0,s6
140004a8:	00153513          	seqz	a0,a0
140004ac:	c7dff0ef          	jal	ra,14000128 <assert>
140004b0:	00045503          	lhu	a0,0(s0)
140004b4:	01051513          	slli	a0,a0,0x10
140004b8:	41055513          	srai	a0,a0,0x10
140004bc:	01250533          	add	a0,a0,s2
140004c0:	00153513          	seqz	a0,a0
140004c4:	c65ff0ef          	jal	ra,14000128 <assert>
140004c8:	00245503          	lhu	a0,2(s0)
140004cc:	01051513          	slli	a0,a0,0x10
140004d0:	41055513          	srai	a0,a0,0x10
140004d4:	00950533          	add	a0,a0,s1
140004d8:	00153513          	seqz	a0,a0
140004dc:	c4dff0ef          	jal	ra,14000128 <assert>
140004e0:	00445503          	lhu	a0,4(s0)
140004e4:	01051513          	slli	a0,a0,0x10
140004e8:	41055513          	srai	a0,a0,0x10
140004ec:	01550533          	add	a0,a0,s5
140004f0:	00153513          	seqz	a0,a0
140004f4:	c35ff0ef          	jal	ra,14000128 <assert>
140004f8:	00645503          	lhu	a0,6(s0)
140004fc:	01051513          	slli	a0,a0,0x10
14000500:	41055513          	srai	a0,a0,0x10
14000504:	01450533          	add	a0,a0,s4
14000508:	00153513          	seqz	a0,a0
1400050c:	c1dff0ef          	jal	ra,14000128 <assert>
14000510:	00144503          	lbu	a0,1(s0)
14000514:	00244783          	lbu	a5,2(s0)
14000518:	00879793          	slli	a5,a5,0x8
1400051c:	00f56533          	or	a0,a0,a5
14000520:	01350533          	add	a0,a0,s3
14000524:	00153513          	seqz	a0,a0
14000528:	c01ff0ef          	jal	ra,14000128 <assert>
1400052c:	00344503          	lbu	a0,3(s0)
14000530:	00444783          	lbu	a5,4(s0)
14000534:	00879793          	slli	a5,a5,0x8
14000538:	00f56533          	or	a0,a0,a5
1400053c:	00812783          	lw	a5,8(sp)
14000540:	00f50533          	add	a0,a0,a5
14000544:	00153513          	seqz	a0,a0
14000548:	be1ff0ef          	jal	ra,14000128 <assert>
1400054c:	00544503          	lbu	a0,5(s0)
14000550:	00644783          	lbu	a5,6(s0)
14000554:	00879793          	slli	a5,a5,0x8
14000558:	00f56533          	or	a0,a0,a5
1400055c:	00c12703          	lw	a4,12(sp)
14000560:	00e50533          	add	a0,a0,a4
14000564:	00153513          	seqz	a0,a0
14000568:	bc1ff0ef          	jal	ra,14000128 <assert>
1400056c:	00744503          	lbu	a0,7(s0)
14000570:	00844783          	lbu	a5,8(s0)
14000574:	00879793          	slli	a5,a5,0x8
14000578:	00f56533          	or	a0,a0,a5
1400057c:	e2250513          	addi	a0,a0,-478
14000580:	00153513          	seqz	a0,a0
14000584:	ba5ff0ef          	jal	ra,14000128 <assert>
14000588:	5d000413          	li	s0,1488
1400058c:	00044503          	lbu	a0,0(s0)
14000590:	fb850513          	addi	a0,a0,-72
14000594:	00153513          	seqz	a0,a0
14000598:	b91ff0ef          	jal	ra,14000128 <assert>
1400059c:	00144503          	lbu	a0,1(s0)
140005a0:	f9b50513          	addi	a0,a0,-101
140005a4:	00153513          	seqz	a0,a0
140005a8:	b81ff0ef          	jal	ra,14000128 <assert>
140005ac:	00244503          	lbu	a0,2(s0)
140005b0:	f9450513          	addi	a0,a0,-108
140005b4:	00153513          	seqz	a0,a0
140005b8:	b71ff0ef          	jal	ra,14000128 <assert>
140005bc:	00444503          	lbu	a0,4(s0)
140005c0:	f9150513          	addi	a0,a0,-111
140005c4:	00153513          	seqz	a0,a0
140005c8:	b61ff0ef          	jal	ra,14000128 <assert>
140005cc:	00644503          	lbu	a0,6(s0)
140005d0:	f8950513          	addi	a0,a0,-119
140005d4:	00153513          	seqz	a0,a0
140005d8:	b51ff0ef          	jal	ra,14000128 <assert>
140005dc:	00744503          	lbu	a0,7(s0)
140005e0:	f9150513          	addi	a0,a0,-111
140005e4:	00153513          	seqz	a0,a0
140005e8:	b41ff0ef          	jal	ra,14000128 <assert>
140005ec:	00944503          	lbu	a0,9(s0)
140005f0:	f9450513          	addi	a0,a0,-108
140005f4:	00153513          	seqz	a0,a0
140005f8:	b31ff0ef          	jal	ra,14000128 <assert>
140005fc:	00b44503          	lbu	a0,11(s0)
14000600:	fdf50513          	addi	a0,a0,-33
14000604:	00153513          	seqz	a0,a0
14000608:	b21ff0ef          	jal	ra,14000128 <assert>
1400060c:	06c12083          	lw	ra,108(sp)
14000610:	06812403          	lw	s0,104(sp)
14000614:	06412483          	lw	s1,100(sp)
14000618:	06012903          	lw	s2,96(sp)
1400061c:	05c12983          	lw	s3,92(sp)
14000620:	05812a03          	lw	s4,88(sp)
14000624:	05412a83          	lw	s5,84(sp)
14000628:	05012b03          	lw	s6,80(sp)
1400062c:	04c12b83          	lw	s7,76(sp)
14000630:	04812c03          	lw	s8,72(sp)
14000634:	04412c83          	lw	s9,68(sp)
14000638:	04012d03          	lw	s10,64(sp)
1400063c:	03c12d83          	lw	s11,60(sp)
14000640:	07010113          	addi	sp,sp,112
14000644:	00008067          	ret

14000648 <main>:
14000648:	ff010113          	addi	sp,sp,-16
1400064c:	00112623          	sw	ra,12(sp)
14000650:	00812423          	sw	s0,8(sp)
14000654:	a4dff0ef          	jal	ra,140000a0 <setupTests>
14000658:	af1ff0ef          	jal	ra,14000148 <testInstructionsInFlash>
1400065c:	000000e7          	jalr	zero # 0 <testInstructionsInSRAM>
14000660:	00000413          	li	s0,0
14000664:	0340006f          	j	14000698 <main+0x50>
14000668:	00241713          	slli	a4,s0,0x2
1400066c:	140007b7          	lui	a5,0x14000
14000670:	07878793          	addi	a5,a5,120 # 14000078 <flashData>
14000674:	00e787b3          	add	a5,a5,a4
14000678:	0007a503          	lw	a0,0(a5)
1400067c:	5c000793          	li	a5,1472
14000680:	00e787b3          	add	a5,a5,a4
14000684:	0007a783          	lw	a5,0(a5)
14000688:	40f50533          	sub	a0,a0,a5
1400068c:	00153513          	seqz	a0,a0
14000690:	a99ff0ef          	jal	ra,14000128 <assert>
14000694:	00140413          	addi	s0,s0,1
14000698:	00300793          	li	a5,3
1400069c:	fc87d6e3          	bge	a5,s0,14000668 <main+0x20>
140006a0:	00000413          	li	s0,0
140006a4:	0340006f          	j	140006d8 <main+0x90>
140006a8:	00141713          	slli	a4,s0,0x1
140006ac:	140007b7          	lui	a5,0x14000
140006b0:	07878793          	addi	a5,a5,120 # 14000078 <flashData>
140006b4:	00e787b3          	add	a5,a5,a4
140006b8:	0007d503          	lhu	a0,0(a5)
140006bc:	5c000793          	li	a5,1472
140006c0:	00e787b3          	add	a5,a5,a4
140006c4:	0007d783          	lhu	a5,0(a5)
140006c8:	40f50533          	sub	a0,a0,a5
140006cc:	00153513          	seqz	a0,a0
140006d0:	a59ff0ef          	jal	ra,14000128 <assert>
140006d4:	00140413          	addi	s0,s0,1
140006d8:	00700793          	li	a5,7
140006dc:	fc87d6e3          	bge	a5,s0,140006a8 <main+0x60>
140006e0:	00000413          	li	s0,0
140006e4:	0300006f          	j	14000714 <main+0xcc>
140006e8:	140007b7          	lui	a5,0x14000
140006ec:	08878793          	addi	a5,a5,136 # 14000088 <flashString>
140006f0:	008787b3          	add	a5,a5,s0
140006f4:	0007c503          	lbu	a0,0(a5)
140006f8:	5d000793          	li	a5,1488
140006fc:	008787b3          	add	a5,a5,s0
14000700:	0007c783          	lbu	a5,0(a5)
14000704:	40f50533          	sub	a0,a0,a5
14000708:	00153513          	seqz	a0,a0
1400070c:	a1dff0ef          	jal	ra,14000128 <assert>
14000710:	00140413          	addi	s0,s0,1
14000714:	00b00793          	li	a5,11
14000718:	fc87d8e3          	bge	a5,s0,140006e8 <main+0xa0>
1400071c:	00c12083          	lw	ra,12(sp)
14000720:	00812403          	lw	s0,8(sp)
14000724:	01010113          	addi	sp,sp,16
14000728:	00008067          	ret

Disassembly of section .data:

00000000 <testInstructionsInSRAM>:
   0:	f9010113          	addi	sp,sp,-112
   4:	06112623          	sw	ra,108(sp)
   8:	06812423          	sw	s0,104(sp)
   c:	06912223          	sw	s1,100(sp)
  10:	07212023          	sw	s2,96(sp)
  14:	05312e23          	sw	s3,92(sp)
  18:	05412c23          	sw	s4,88(sp)
  1c:	05512a23          	sw	s5,84(sp)
  20:	05612823          	sw	s6,80(sp)
  24:	05712623          	sw	s7,76(sp)
  28:	05812423          	sw	s8,72(sp)
  2c:	05912223          	sw	s9,68(sp)
  30:	05a12023          	sw	s10,64(sp)
  34:	03b12e23          	sw	s11,60(sp)
  38:	00000693          	li	a3,0
  3c:	02c0006f          	j	68 <testInstructionsInSRAM+0x68>
  40:	00269713          	slli	a4,a3,0x2
  44:	140007b7          	lui	a5,0x14000
  48:	07878793          	addi	a5,a5,120 # 14000078 <flashData>
  4c:	00e787b3          	add	a5,a5,a4
  50:	0007a783          	lw	a5,0(a5)
  54:	02070713          	addi	a4,a4,32
  58:	01010613          	addi	a2,sp,16
  5c:	00c70733          	add	a4,a4,a2
  60:	fef72823          	sw	a5,-16(a4)
  64:	00168693          	addi	a3,a3,1
  68:	00300793          	li	a5,3
  6c:	fcd7dae3          	bge	a5,a3,40 <testInstructionsInSRAM+0x40>
  70:	00000713          	li	a4,0
  74:	0280006f          	j	9c <testInstructionsInSRAM+0x9c>
  78:	140007b7          	lui	a5,0x14000
  7c:	08878793          	addi	a5,a5,136 # 14000088 <flashString>
  80:	00e787b3          	add	a5,a5,a4
  84:	0007c683          	lbu	a3,0(a5)
  88:	02070793          	addi	a5,a4,32
  8c:	01010613          	addi	a2,sp,16
  90:	00c787b3          	add	a5,a5,a2
  94:	fed78223          	sb	a3,-28(a5)
  98:	00170713          	addi	a4,a4,1
  9c:	00b00793          	li	a5,11
  a0:	fce7dce3          	bge	a5,a4,78 <testInstructionsInSRAM+0x78>
  a4:	02012503          	lw	a0,32(sp)
  a8:	edcbbdb7          	lui	s11,0xedcbb
  ac:	988d8d93          	addi	s11,s11,-1656 # edcba988 <_etext+0xd9cba25c>
  b0:	01b50533          	add	a0,a0,s11
  b4:	00153513          	seqz	a0,a0
  b8:	14000097          	auipc	ra,0x14000
  bc:	070080e7          	jalr	112(ra) # 14000128 <assert>
  c0:	02412503          	lw	a0,36(sp)
  c4:	21524d37          	lui	s10,0x21524
  c8:	111d0d13          	addi	s10,s10,273 # 21524111 <_etext+0xd5239e5>
  cc:	01a50533          	add	a0,a0,s10
  d0:	00153513          	seqz	a0,a0
  d4:	14000097          	auipc	ra,0x14000
  d8:	054080e7          	jalr	84(ra) # 14000128 <assert>
  dc:	02812503          	lw	a0,40(sp)
  e0:	54321cb7          	lui	s9,0x54321
  e4:	0ffc8c93          	addi	s9,s9,255 # 543210ff <_etext+0x403209d3>
  e8:	01950533          	add	a0,a0,s9
  ec:	00153513          	seqz	a0,a0
  f0:	14000097          	auipc	ra,0x14000
  f4:	038080e7          	jalr	56(ra) # 14000128 <assert>
  f8:	02c12503          	lw	a0,44(sp)
  fc:	f0e1dc37          	lui	s8,0xf0e1d
 100:	2c4c0c13          	addi	s8,s8,708 # f0e1d2c4 <_etext+0xdce1cb98>
 104:	01850533          	add	a0,a0,s8
 108:	00153513          	seqz	a0,a0
 10c:	14000097          	auipc	ra,0x14000
 110:	01c080e7          	jalr	28(ra) # 14000128 <assert>
 114:	02015503          	lhu	a0,32(sp)
 118:	ffffb937          	lui	s2,0xffffb
 11c:	98890913          	addi	s2,s2,-1656 # ffffa988 <_etext+0xebffa25c>
 120:	01250533          	add	a0,a0,s2
 124:	00153513          	seqz	a0,a0
 128:	14000097          	auipc	ra,0x14000
 12c:	000080e7          	jalr	ra # 14000128 <assert>
 130:	02215503          	lhu	a0,34(sp)
 134:	fffff4b7          	lui	s1,0xfffff
 138:	dcc48493          	addi	s1,s1,-564 # ffffedcc <_etext+0xebffe6a0>
 13c:	00950533          	add	a0,a0,s1
 140:	00153513          	seqz	a0,a0
 144:	14000097          	auipc	ra,0x14000
 148:	fe4080e7          	jalr	-28(ra) # 14000128 <assert>
 14c:	02415503          	lhu	a0,36(sp)
 150:	ffff4bb7          	lui	s7,0xffff4
 154:	111b8b93          	addi	s7,s7,273 # ffff4111 <_etext+0xebff39e5>
 158:	01750533          	add	a0,a0,s7
 15c:	00153513          	seqz	a0,a0
 160:	14000097          	auipc	ra,0x14000
 164:	fc8080e7          	jalr	-56(ra) # 14000128 <assert>
 168:	02615503          	lhu	a0,38(sp)
 16c:	ffff2b37          	lui	s6,0xffff2
 170:	153b0b13          	addi	s6,s6,339 # ffff2153 <_etext+0xebff1a27>
 174:	01650533          	add	a0,a0,s6
 178:	00153513          	seqz	a0,a0
 17c:	14000097          	auipc	ra,0x14000
 180:	fac080e7          	jalr	-84(ra) # 14000128 <assert>
 184:	02015503          	lhu	a0,32(sp)
 188:	01051513          	slli	a0,a0,0x10
 18c:	41055513          	srai	a0,a0,0x10
 190:	01250533          	add	a0,a0,s2
 194:	00153513          	seqz	a0,a0
 198:	14000097          	auipc	ra,0x14000
 19c:	f90080e7          	jalr	-112(ra) # 14000128 <assert>
 1a0:	02215503          	lhu	a0,34(sp)
 1a4:	01051513          	slli	a0,a0,0x10
 1a8:	41055513          	srai	a0,a0,0x10
 1ac:	00950533          	add	a0,a0,s1
 1b0:	00153513          	seqz	a0,a0
 1b4:	14000097          	auipc	ra,0x14000
 1b8:	f74080e7          	jalr	-140(ra) # 14000128 <assert>
 1bc:	02415503          	lhu	a0,36(sp)
 1c0:	01051513          	slli	a0,a0,0x10
 1c4:	41055513          	srai	a0,a0,0x10
 1c8:	00004ab7          	lui	s5,0x4
 1cc:	111a8a93          	addi	s5,s5,273 # 4111 <_stack_top+0x3111>
 1d0:	01550533          	add	a0,a0,s5
 1d4:	00153513          	seqz	a0,a0
 1d8:	14000097          	auipc	ra,0x14000
 1dc:	f50080e7          	jalr	-176(ra) # 14000128 <assert>
 1e0:	02615503          	lhu	a0,38(sp)
 1e4:	01051513          	slli	a0,a0,0x10
 1e8:	41055513          	srai	a0,a0,0x10
 1ec:	00002a37          	lui	s4,0x2
 1f0:	153a0a13          	addi	s4,s4,339 # 2153 <_stack_top+0x1153>
 1f4:	01450533          	add	a0,a0,s4
 1f8:	00153513          	seqz	a0,a0
 1fc:	14000097          	auipc	ra,0x14000
 200:	f2c080e7          	jalr	-212(ra) # 14000128 <assert>
 204:	02114503          	lbu	a0,33(sp)
 208:	02214783          	lbu	a5,34(sp)
 20c:	00879793          	slli	a5,a5,0x8
 210:	00f56533          	or	a0,a0,a5
 214:	ffffd9b7          	lui	s3,0xffffd
 218:	baa98993          	addi	s3,s3,-1110 # ffffcbaa <_etext+0xebffc47e>
 21c:	01350533          	add	a0,a0,s3
 220:	00153513          	seqz	a0,a0
 224:	14000097          	auipc	ra,0x14000
 228:	f04080e7          	jalr	-252(ra) # 14000128 <assert>
 22c:	02314503          	lbu	a0,35(sp)
 230:	02414783          	lbu	a5,36(sp)
 234:	00879793          	slli	a5,a5,0x8
 238:	00f56533          	or	a0,a0,a5
 23c:	ffff17b7          	lui	a5,0xffff1
 240:	0ee78793          	addi	a5,a5,238 # ffff10ee <_etext+0xebff09c2>
 244:	00f12423          	sw	a5,8(sp)
 248:	00f50533          	add	a0,a0,a5
 24c:	00153513          	seqz	a0,a0
 250:	14000097          	auipc	ra,0x14000
 254:	ed8080e7          	jalr	-296(ra) # 14000128 <assert>
 258:	02514503          	lbu	a0,37(sp)
 25c:	02614783          	lbu	a5,38(sp)
 260:	00879793          	slli	a5,a5,0x8
 264:	00f56533          	or	a0,a0,a5
 268:	ffff57b7          	lui	a5,0xffff5
 26c:	24278713          	addi	a4,a5,578 # ffff5242 <_etext+0xebff4b16>
 270:	00e12623          	sw	a4,12(sp)
 274:	00e50533          	add	a0,a0,a4
 278:	00153513          	seqz	a0,a0
 27c:	14000097          	auipc	ra,0x14000
 280:	eac080e7          	jalr	-340(ra) # 14000128 <assert>
 284:	02714503          	lbu	a0,39(sp)
 288:	02814783          	lbu	a5,40(sp)
 28c:	00879793          	slli	a5,a5,0x8
 290:	00f56533          	or	a0,a0,a5
 294:	e2250513          	addi	a0,a0,-478
 298:	00153513          	seqz	a0,a0
 29c:	14000097          	auipc	ra,0x14000
 2a0:	e8c080e7          	jalr	-372(ra) # 14000128 <assert>
 2a4:	01414503          	lbu	a0,20(sp)
 2a8:	fb850513          	addi	a0,a0,-72
 2ac:	00153513          	seqz	a0,a0
 2b0:	14000097          	auipc	ra,0x14000
 2b4:	e78080e7          	jalr	-392(ra) # 14000128 <assert>
 2b8:	01514503          	lbu	a0,21(sp)
 2bc:	f9b50513          	addi	a0,a0,-101
 2c0:	00153513          	seqz	a0,a0
 2c4:	14000097          	auipc	ra,0x14000
 2c8:	e64080e7          	jalr	-412(ra) # 14000128 <assert>
 2cc:	01614503          	lbu	a0,22(sp)
 2d0:	f9450513          	addi	a0,a0,-108
 2d4:	00153513          	seqz	a0,a0
 2d8:	14000097          	auipc	ra,0x14000
 2dc:	e50080e7          	jalr	-432(ra) # 14000128 <assert>
 2e0:	01814503          	lbu	a0,24(sp)
 2e4:	f9150513          	addi	a0,a0,-111
 2e8:	00153513          	seqz	a0,a0
 2ec:	14000097          	auipc	ra,0x14000
 2f0:	e3c080e7          	jalr	-452(ra) # 14000128 <assert>
 2f4:	01a14503          	lbu	a0,26(sp)
 2f8:	f8950513          	addi	a0,a0,-119
 2fc:	00153513          	seqz	a0,a0
 300:	14000097          	auipc	ra,0x14000
 304:	e28080e7          	jalr	-472(ra) # 14000128 <assert>
 308:	01b14503          	lbu	a0,27(sp)
 30c:	f9150513          	addi	a0,a0,-111
 310:	00153513          	seqz	a0,a0
 314:	14000097          	auipc	ra,0x14000
 318:	e14080e7          	jalr	-492(ra) # 14000128 <assert>
 31c:	01d14503          	lbu	a0,29(sp)
 320:	f9450513          	addi	a0,a0,-108
 324:	00153513          	seqz	a0,a0
 328:	14000097          	auipc	ra,0x14000
 32c:	e00080e7          	jalr	-512(ra) # 14000128 <assert>
 330:	01f14503          	lbu	a0,31(sp)
 334:	fdf50513          	addi	a0,a0,-33
 338:	00153513          	seqz	a0,a0
 33c:	14000097          	auipc	ra,0x14000
 340:	dec080e7          	jalr	-532(ra) # 14000128 <assert>
 344:	5c000413          	li	s0,1472
 348:	00042503          	lw	a0,0(s0)
 34c:	01b50533          	add	a0,a0,s11
 350:	00153513          	seqz	a0,a0
 354:	14000097          	auipc	ra,0x14000
 358:	dd4080e7          	jalr	-556(ra) # 14000128 <assert>
 35c:	00442503          	lw	a0,4(s0)
 360:	01a50533          	add	a0,a0,s10
 364:	00153513          	seqz	a0,a0
 368:	14000097          	auipc	ra,0x14000
 36c:	dc0080e7          	jalr	-576(ra) # 14000128 <assert>
 370:	00842503          	lw	a0,8(s0)
 374:	01950533          	add	a0,a0,s9
 378:	00153513          	seqz	a0,a0
 37c:	14000097          	auipc	ra,0x14000
 380:	dac080e7          	jalr	-596(ra) # 14000128 <assert>
 384:	00c42503          	lw	a0,12(s0)
 388:	01850533          	add	a0,a0,s8
 38c:	00153513          	seqz	a0,a0
 390:	14000097          	auipc	ra,0x14000
 394:	d98080e7          	jalr	-616(ra) # 14000128 <assert>
 398:	00045503          	lhu	a0,0(s0)
 39c:	01250533          	add	a0,a0,s2
 3a0:	00153513          	seqz	a0,a0
 3a4:	14000097          	auipc	ra,0x14000
 3a8:	d84080e7          	jalr	-636(ra) # 14000128 <assert>
 3ac:	00245503          	lhu	a0,2(s0)
 3b0:	00950533          	add	a0,a0,s1
 3b4:	00153513          	seqz	a0,a0
 3b8:	14000097          	auipc	ra,0x14000
 3bc:	d70080e7          	jalr	-656(ra) # 14000128 <assert>
 3c0:	00445503          	lhu	a0,4(s0)
 3c4:	01750533          	add	a0,a0,s7
 3c8:	00153513          	seqz	a0,a0
 3cc:	14000097          	auipc	ra,0x14000
 3d0:	d5c080e7          	jalr	-676(ra) # 14000128 <assert>
 3d4:	00645503          	lhu	a0,6(s0)
 3d8:	01650533          	add	a0,a0,s6
 3dc:	00153513          	seqz	a0,a0
 3e0:	14000097          	auipc	ra,0x14000
 3e4:	d48080e7          	jalr	-696(ra) # 14000128 <assert>
 3e8:	00045503          	lhu	a0,0(s0)
 3ec:	01051513          	slli	a0,a0,0x10
 3f0:	41055513          	srai	a0,a0,0x10
 3f4:	01250533          	add	a0,a0,s2
 3f8:	00153513          	seqz	a0,a0
 3fc:	14000097          	auipc	ra,0x14000
 400:	d2c080e7          	jalr	-724(ra) # 14000128 <assert>
 404:	00245503          	lhu	a0,2(s0)
 408:	01051513          	slli	a0,a0,0x10
 40c:	41055513          	srai	a0,a0,0x10
 410:	00950533          	add	a0,a0,s1
 414:	00153513          	seqz	a0,a0
 418:	14000097          	auipc	ra,0x14000
 41c:	d10080e7          	jalr	-752(ra) # 14000128 <assert>
 420:	00445503          	lhu	a0,4(s0)
 424:	01051513          	slli	a0,a0,0x10
 428:	41055513          	srai	a0,a0,0x10
 42c:	01550533          	add	a0,a0,s5
 430:	00153513          	seqz	a0,a0
 434:	14000097          	auipc	ra,0x14000
 438:	cf4080e7          	jalr	-780(ra) # 14000128 <assert>
 43c:	00645503          	lhu	a0,6(s0)
 440:	01051513          	slli	a0,a0,0x10
 444:	41055513          	srai	a0,a0,0x10
 448:	01450533          	add	a0,a0,s4
 44c:	00153513          	seqz	a0,a0
 450:	14000097          	auipc	ra,0x14000
 454:	cd8080e7          	jalr	-808(ra) # 14000128 <assert>
 458:	00144503          	lbu	a0,1(s0)
 45c:	00244783          	lbu	a5,2(s0)
 460:	00879793          	slli	a5,a5,0x8
 464:	00f56533          	or	a0,a0,a5
 468:	01350533          	add	a0,a0,s3
 46c:	00153513          	seqz	a0,a0
 470:	14000097          	auipc	ra,0x14000
 474:	cb8080e7          	jalr	-840(ra) # 14000128 <assert>
 478:	00344503          	lbu	a0,3(s0)
 47c:	00444783          	lbu	a5,4(s0)
 480:	00879793          	slli	a5,a5,0x8
 484:	00f56533          	or	a0,a0,a5
 488:	00812783          	lw	a5,8(sp)
 48c:	00f50533          	add	a0,a0,a5
 490:	00153513          	seqz	a0,a0
 494:	14000097          	auipc	ra,0x14000
 498:	c94080e7          	jalr	-876(ra) # 14000128 <assert>
 49c:	00544503          	lbu	a0,5(s0)
 4a0:	00644783          	lbu	a5,6(s0)
 4a4:	00879793          	slli	a5,a5,0x8
 4a8:	00f56533          	or	a0,a0,a5
 4ac:	00c12703          	lw	a4,12(sp)
 4b0:	00e50533          	add	a0,a0,a4
 4b4:	00153513          	seqz	a0,a0
 4b8:	14000097          	auipc	ra,0x14000
 4bc:	c70080e7          	jalr	-912(ra) # 14000128 <assert>
 4c0:	00744503          	lbu	a0,7(s0)
 4c4:	00844783          	lbu	a5,8(s0)
 4c8:	00879793          	slli	a5,a5,0x8
 4cc:	00f56533          	or	a0,a0,a5
 4d0:	e2250513          	addi	a0,a0,-478
 4d4:	00153513          	seqz	a0,a0
 4d8:	14000097          	auipc	ra,0x14000
 4dc:	c50080e7          	jalr	-944(ra) # 14000128 <assert>
 4e0:	5d000413          	li	s0,1488
 4e4:	00044503          	lbu	a0,0(s0)
 4e8:	fb850513          	addi	a0,a0,-72
 4ec:	00153513          	seqz	a0,a0
 4f0:	14000097          	auipc	ra,0x14000
 4f4:	c38080e7          	jalr	-968(ra) # 14000128 <assert>
 4f8:	00144503          	lbu	a0,1(s0)
 4fc:	f9b50513          	addi	a0,a0,-101
 500:	00153513          	seqz	a0,a0
 504:	14000097          	auipc	ra,0x14000
 508:	c24080e7          	jalr	-988(ra) # 14000128 <assert>
 50c:	00244503          	lbu	a0,2(s0)
 510:	f9450513          	addi	a0,a0,-108
 514:	00153513          	seqz	a0,a0
 518:	14000097          	auipc	ra,0x14000
 51c:	c10080e7          	jalr	-1008(ra) # 14000128 <assert>
 520:	00444503          	lbu	a0,4(s0)
 524:	f9150513          	addi	a0,a0,-111
 528:	00153513          	seqz	a0,a0
 52c:	14000097          	auipc	ra,0x14000
 530:	bfc080e7          	jalr	-1028(ra) # 14000128 <assert>
 534:	00644503          	lbu	a0,6(s0)
 538:	f8950513          	addi	a0,a0,-119
 53c:	00153513          	seqz	a0,a0
 540:	14000097          	auipc	ra,0x14000
 544:	be8080e7          	jalr	-1048(ra) # 14000128 <assert>
 548:	00744503          	lbu	a0,7(s0)
 54c:	f9150513          	addi	a0,a0,-111
 550:	00153513          	seqz	a0,a0
 554:	14000097          	auipc	ra,0x14000
 558:	bd4080e7          	jalr	-1068(ra) # 14000128 <assert>
 55c:	00944503          	lbu	a0,9(s0)
 560:	f9450513          	addi	a0,a0,-108
 564:	00153513          	seqz	a0,a0
 568:	14000097          	auipc	ra,0x14000
 56c:	bc0080e7          	jalr	-1088(ra) # 14000128 <assert>
 570:	00b44503          	lbu	a0,11(s0)
 574:	fdf50513          	addi	a0,a0,-33
 578:	00153513          	seqz	a0,a0
 57c:	14000097          	auipc	ra,0x14000
 580:	bac080e7          	jalr	-1108(ra) # 14000128 <assert>
 584:	06c12083          	lw	ra,108(sp)
 588:	06812403          	lw	s0,104(sp)
 58c:	06412483          	lw	s1,100(sp)
 590:	06012903          	lw	s2,96(sp)
 594:	05c12983          	lw	s3,92(sp)
 598:	05812a03          	lw	s4,88(sp)
 59c:	05412a83          	lw	s5,84(sp)
 5a0:	05012b03          	lw	s6,80(sp)
 5a4:	04c12b83          	lw	s7,76(sp)
 5a8:	04812c03          	lw	s8,72(sp)
 5ac:	04412c83          	lw	s9,68(sp)
 5b0:	04012d03          	lw	s10,64(sp)
 5b4:	03c12d83          	lw	s11,60(sp)
 5b8:	07010113          	addi	sp,sp,112
 5bc:	00008067          	ret

000005c0 <sramData>:
 5c0:	12345678 deadbeef abcdef01 0f1e2d3c     xV4.........<-..

000005d0 <sramString>:
 5d0:	6c6c6548 6f77206f 21646c72 00000000     Hello world!....
