
snakeUART.elf:     file format elf32-littleriscv


Disassembly of section .text:

14000000 <_start>:
14000000:	00000517          	auipc	a0,0x0
14000004:	06c50513          	addi	a0,a0,108 # 1400006c <_trap>
14000008:	30551073          	csrw	mtvec,a0
1400000c:	ec000197          	auipc	gp,0xec000
14000010:	7f418193          	addi	gp,gp,2036 # 800 <_global_pointer$>
14000014:	ec001117          	auipc	sp,0xec001
14000018:	fec10113          	addi	sp,sp,-20 # 1000 <_stack_top>
1400001c:	00010433          	add	s0,sp,zero
14000020:	00000517          	auipc	a0,0x0
14000024:	0e850513          	addi	a0,a0,232 # 14000108 <_etext>
14000028:	00000593          	li	a1,0
1400002c:	00000613          	li	a2,0
14000030:	00c5dc63          	bge	a1,a2,14000048 <end_init_data>

14000034 <loop_init_data>:
14000034:	00052683          	lw	a3,0(a0)
14000038:	00d5a023          	sw	a3,0(a1)
1400003c:	00450513          	addi	a0,a0,4
14000040:	00458593          	addi	a1,a1,4
14000044:	fec5c8e3          	blt	a1,a2,14000034 <loop_init_data>

14000048 <end_init_data>:
14000048:	00000513          	li	a0,0
1400004c:	00000593          	li	a1,0
14000050:	00b55863          	bge	a0,a1,14000060 <end_init_bss>

14000054 <loop_init_bss>:
14000054:	00052023          	sw	zero,0(a0)
14000058:	00450513          	addi	a0,a0,4
1400005c:	feb54ce3          	blt	a0,a1,14000054 <loop_init_bss>

14000060 <end_init_bss>:
14000060:	04c000ef          	jal	ra,140000ac <main>
14000064:	00100073          	ebreak

14000068 <_exit>:
14000068:	000000ef          	jal	ra,14000068 <_exit>

1400006c <_trap>:
1400006c:	0000006f          	j	1400006c <_trap>
14000070:	6548                	flw	fa0,12(a0)
14000072:	6c6c                	flw	fa1,92(s0)
14000074:	6f57206f          	j	14072f68 <_etext+0x72e60>
14000078:	6c72                	flw	fs8,28(sp)
1400007a:	2164                	fld	fs1,192(a0)
1400007c:	000a                	c.slli	zero,0x2
	...

14000080 <UARTInit>:
14000080:	00052023          	sw	zero,0(a0)
14000084:	00f00793          	li	a5,15
14000088:	00f52223          	sw	a5,4(a0)
1400008c:	00b52023          	sw	a1,0(a0)
14000090:	00008067          	ret

14000094 <UARTWrite>:
14000094:	00c0006f          	j	140000a0 <UARTWrite+0xc>
14000098:	00f52823          	sw	a5,16(a0)
1400009c:	00158593          	addi	a1,a1,1
140000a0:	0005c783          	lbu	a5,0(a1)
140000a4:	fe079ae3          	bnez	a5,14000098 <UARTWrite+0x4>
140000a8:	00008067          	ret

140000ac <main>:
140000ac:	ff010113          	addi	sp,sp,-16
140000b0:	00112623          	sw	ra,12(sp)
140000b4:	000305b7          	lui	a1,0x30
140000b8:	00458593          	addi	a1,a1,4 # 30004 <_stack_top+0x2f004>
140000bc:	13002537          	lui	a0,0x13002
140000c0:	fc1ff0ef          	jal	ra,14000080 <UARTInit>
140000c4:	130027b7          	lui	a5,0x13002
140000c8:	04800713          	li	a4,72
140000cc:	00e7a823          	sw	a4,16(a5) # 13002010 <_stack_top+0x13001010>
140000d0:	06500713          	li	a4,101
140000d4:	00e7a823          	sw	a4,16(a5)
140000d8:	06c00713          	li	a4,108
140000dc:	00e7a823          	sw	a4,16(a5)
140000e0:	00e7a823          	sw	a4,16(a5)
140000e4:	06f00713          	li	a4,111
140000e8:	00e7a823          	sw	a4,16(a5)
140000ec:	140005b7          	lui	a1,0x14000
140000f0:	07058593          	addi	a1,a1,112 # 14000070 <_trap+0x4>
140000f4:	13002537          	lui	a0,0x13002
140000f8:	f9dff0ef          	jal	ra,14000094 <UARTWrite>
140000fc:	00c12083          	lw	ra,12(sp)
14000100:	01010113          	addi	sp,sp,16
14000104:	00008067          	ret
