
snakeUART.elf:     file format elf32-littleriscv


Disassembly of section .text:

14000000 <_start>:
14000000:	ec001197          	auipc	gp,0xec001
14000004:	80018193          	addi	gp,gp,-2048 # 800 <_global_pointer$>
14000008:	ec001117          	auipc	sp,0xec001
1400000c:	ff810113          	addi	sp,sp,-8 # 1000 <_stack_top>
14000010:	00010433          	add	s0,sp,zero
14000014:	00001517          	auipc	a0,0x1
14000018:	46050513          	addi	a0,a0,1120 # 14001474 <_etext>
1400001c:	ec000597          	auipc	a1,0xec000
14000020:	fe458593          	addi	a1,a1,-28 # 0 <GetMicros>
14000024:	ec000617          	auipc	a2,0xec000
14000028:	05460613          	addi	a2,a2,84 # 78 <_GLOBAL_OFFSET_TABLE_>
1400002c:	00c5dc63          	bge	a1,a2,14000044 <end_init_data>

14000030 <loop_init_data>:
14000030:	00052683          	lw	a3,0(a0)
14000034:	00d5a023          	sw	a3,0(a1)
14000038:	00450513          	addi	a0,a0,4
1400003c:	00458593          	addi	a1,a1,4
14000040:	fec5c8e3          	blt	a1,a2,14000030 <loop_init_data>

14000044 <end_init_data>:
14000044:	08800513          	li	a0,136
14000048:	36c00593          	li	a1,876
1400004c:	00b55863          	bge	a0,a1,1400005c <end_init_bss>

14000050 <loop_init_bss>:
14000050:	00052023          	sw	zero,0(a0)
14000054:	00450513          	addi	a0,a0,4
14000058:	feb54ce3          	blt	a0,a1,14000050 <loop_init_bss>

1400005c <end_init_bss>:
1400005c:	411000ef          	jal	ra,14000c6c <main>
14000060:	00000073          	ecall

14000064 <_exit>:
14000064:	000000ef          	jal	ra,14000064 <_exit>

14000068 <gameOverText>:
14000068:	656d6147 65764f20 00002172              Game Over!..

14000074 <gameWinText>:
14000074:	20756f59 216e6957 00000000              You Win!....

14000080 <scoreFormatText>:
14000080:	726f6353 25203a65 00000064 14000a20     Score: %d... ...
14000090:	14000aa4 14000aa4 14000aa4 14000aa4     ................
140000a0:	14000aa4 14000aa4 14000aa4 14000aa4     ................
140000b0:	14000aa4 14000aa4 14000a5c 140009e4     ........\.......
140000c0:	14000aa4 14000aa4 14000aa4 14000aa4     ................
140000d0:	140009e4 14000aa4 14000aa4 14000aa4     ................
140000e0:	14000aa4 14000aa4 14000aa4 14000aa4     ................
140000f0:	14000aa4 14000aa4 14000a78 14000aa4     ........x.......
14000100:	140009e4 14000aa4 14000aa4 14000a20     ............ ...

14000110 <__clz_tab>:
14000110:	02020100 03030303 04040404 04040404     ................
14000120:	05050505 05050505 05050505 05050505     ................
14000130:	06060606 06060606 06060606 06060606     ................
14000140:	06060606 06060606 06060606 06060606     ................
14000150:	07070707 07070707 07070707 07070707     ................
14000160:	07070707 07070707 07070707 07070707     ................
14000170:	07070707 07070707 07070707 07070707     ................
14000180:	07070707 07070707 07070707 07070707     ................
14000190:	08080808 08080808 08080808 08080808     ................
140001a0:	08080808 08080808 08080808 08080808     ................
140001b0:	08080808 08080808 08080808 08080808     ................
140001c0:	08080808 08080808 08080808 08080808     ................
140001d0:	08080808 08080808 08080808 08080808     ................
140001e0:	08080808 08080808 08080808 08080808     ................
140001f0:	08080808 08080808 08080808 08080808     ................
14000200:	08080808 08080808 08080808 08080808     ................

14000210 <DrawGameWin>:
14000210:	ff010113          	addi	sp,sp,-16
14000214:	00112623          	sw	ra,12(sp)
14000218:	00812423          	sw	s0,8(sp)
1400021c:	00912223          	sw	s1,4(sp)
14000220:	00050413          	mv	s0,a0
14000224:	14000537          	lui	a0,0x14000
14000228:	07450513          	addi	a0,a0,116 # 14000074 <gameWinText>
1400022c:	19c010ef          	jal	ra,140013c8 <strlen>
14000230:	01000793          	li	a5,16
14000234:	40a787b3          	sub	a5,a5,a0
14000238:	01f7d613          	srli	a2,a5,0x1f
1400023c:	00f60633          	add	a2,a2,a5
14000240:	40165613          	srai	a2,a2,0x1
14000244:	0ff67613          	zext.b	a2,a2
14000248:	06060613          	addi	a2,a2,96
1400024c:	00000713          	li	a4,0
14000250:	0280006f          	j	14000278 <DrawGameWin+0x68>
14000254:	00e605b3          	add	a1,a2,a4
14000258:	140007b7          	lui	a5,0x14000
1400025c:	07478793          	addi	a5,a5,116 # 14000074 <gameWinText>
14000260:	00e787b3          	add	a5,a5,a4
14000264:	0007c683          	lbu	a3,0(a5)
14000268:	08800793          	li	a5,136
1400026c:	00b787b3          	add	a5,a5,a1
14000270:	00d78023          	sb	a3,0(a5)
14000274:	00170713          	addi	a4,a4,1
14000278:	fca74ee3          	blt	a4,a0,14000254 <DrawGameWin+0x44>
1400027c:	00040693          	mv	a3,s0
14000280:	14000637          	lui	a2,0x14000
14000284:	08060613          	addi	a2,a2,128 # 14000080 <scoreFormatText>
14000288:	01000593          	li	a1,16
1400028c:	14800513          	li	a0,328
14000290:	041000ef          	jal	ra,14000ad0 <mini_snprintf>
14000294:	14800513          	li	a0,328
14000298:	130010ef          	jal	ra,140013c8 <strlen>
1400029c:	01000793          	li	a5,16
140002a0:	40a787b3          	sub	a5,a5,a0
140002a4:	01f7d693          	srli	a3,a5,0x1f
140002a8:	00f686b3          	add	a3,a3,a5
140002ac:	4016d693          	srai	a3,a3,0x1
140002b0:	0ff6f693          	zext.b	a3,a3
140002b4:	05068693          	addi	a3,a3,80
140002b8:	00000713          	li	a4,0
140002bc:	0240006f          	j	140002e0 <DrawGameWin+0xd0>
140002c0:	00e685b3          	add	a1,a3,a4
140002c4:	14800793          	li	a5,328
140002c8:	00e787b3          	add	a5,a5,a4
140002cc:	0007c603          	lbu	a2,0(a5)
140002d0:	08800793          	li	a5,136
140002d4:	00b787b3          	add	a5,a5,a1
140002d8:	00c78023          	sb	a2,0(a5)
140002dc:	00170713          	addi	a4,a4,1
140002e0:	fea740e3          	blt	a4,a0,140002c0 <DrawGameWin+0xb0>
140002e4:	00c12083          	lw	ra,12(sp)
140002e8:	00812403          	lw	s0,8(sp)
140002ec:	00412483          	lw	s1,4(sp)
140002f0:	01010113          	addi	sp,sp,16
140002f4:	00008067          	ret

140002f8 <DrawGameLose>:
140002f8:	ff010113          	addi	sp,sp,-16
140002fc:	00112623          	sw	ra,12(sp)
14000300:	00812423          	sw	s0,8(sp)
14000304:	00912223          	sw	s1,4(sp)
14000308:	00050413          	mv	s0,a0
1400030c:	14000537          	lui	a0,0x14000
14000310:	06850513          	addi	a0,a0,104 # 14000068 <gameOverText>
14000314:	0b4010ef          	jal	ra,140013c8 <strlen>
14000318:	01000793          	li	a5,16
1400031c:	40a787b3          	sub	a5,a5,a0
14000320:	01f7d613          	srli	a2,a5,0x1f
14000324:	00f60633          	add	a2,a2,a5
14000328:	40165613          	srai	a2,a2,0x1
1400032c:	0ff67613          	zext.b	a2,a2
14000330:	06060613          	addi	a2,a2,96
14000334:	00000713          	li	a4,0
14000338:	0280006f          	j	14000360 <DrawGameLose+0x68>
1400033c:	00e605b3          	add	a1,a2,a4
14000340:	140007b7          	lui	a5,0x14000
14000344:	06878793          	addi	a5,a5,104 # 14000068 <gameOverText>
14000348:	00e787b3          	add	a5,a5,a4
1400034c:	0007c683          	lbu	a3,0(a5)
14000350:	08800793          	li	a5,136
14000354:	00b787b3          	add	a5,a5,a1
14000358:	00d78023          	sb	a3,0(a5)
1400035c:	00170713          	addi	a4,a4,1
14000360:	fca74ee3          	blt	a4,a0,1400033c <DrawGameLose+0x44>
14000364:	00040693          	mv	a3,s0
14000368:	14000637          	lui	a2,0x14000
1400036c:	08060613          	addi	a2,a2,128 # 14000080 <scoreFormatText>
14000370:	01000593          	li	a1,16
14000374:	14800513          	li	a0,328
14000378:	758000ef          	jal	ra,14000ad0 <mini_snprintf>
1400037c:	14800513          	li	a0,328
14000380:	048010ef          	jal	ra,140013c8 <strlen>
14000384:	01000793          	li	a5,16
14000388:	40a787b3          	sub	a5,a5,a0
1400038c:	01f7d693          	srli	a3,a5,0x1f
14000390:	00f686b3          	add	a3,a3,a5
14000394:	4016d693          	srai	a3,a3,0x1
14000398:	0ff6f693          	zext.b	a3,a3
1400039c:	05068693          	addi	a3,a3,80
140003a0:	00000713          	li	a4,0
140003a4:	0240006f          	j	140003c8 <DrawGameLose+0xd0>
140003a8:	00e685b3          	add	a1,a3,a4
140003ac:	14800793          	li	a5,328
140003b0:	00e787b3          	add	a5,a5,a4
140003b4:	0007c603          	lbu	a2,0(a5)
140003b8:	08800793          	li	a5,136
140003bc:	00b787b3          	add	a5,a5,a1
140003c0:	00c78023          	sb	a2,0(a5)
140003c4:	00170713          	addi	a4,a4,1
140003c8:	fea740e3          	blt	a4,a0,140003a8 <DrawGameLose+0xb0>
140003cc:	00c12083          	lw	ra,12(sp)
140003d0:	00812403          	lw	s0,8(sp)
140003d4:	00412483          	lw	s1,4(sp)
140003d8:	01010113          	addi	sp,sp,16
140003dc:	00008067          	ret

140003e0 <spawnFood>:
140003e0:	ff010113          	addi	sp,sp,-16
140003e4:	00112623          	sw	ra,12(sp)
140003e8:	00812423          	sw	s0,8(sp)
140003ec:	00050413          	mv	s0,a0
140003f0:	00954683          	lbu	a3,9(a0)
140003f4:	07400713          	li	a4,116
140003f8:	00072783          	lw	a5,0(a4)
140003fc:	00d79613          	slli	a2,a5,0xd
14000400:	00c7c7b3          	xor	a5,a5,a2
14000404:	00f72023          	sw	a5,0(a4)
14000408:	0117d613          	srli	a2,a5,0x11
1400040c:	00c7c7b3          	xor	a5,a5,a2
14000410:	00f72023          	sw	a5,0(a4)
14000414:	00579613          	slli	a2,a5,0x5
14000418:	00c7c533          	xor	a0,a5,a2
1400041c:	00a72023          	sw	a0,0(a4)
14000420:	0c000593          	li	a1,192
14000424:	40d585b3          	sub	a1,a1,a3
14000428:	73d000ef          	jal	ra,14001364 <__umodsi3>
1400042c:	00000593          	li	a1,0
14000430:	00000613          	li	a2,0
14000434:	00000693          	li	a3,0
14000438:	04c0006f          	j	14000484 <spawnFood+0xa4>
1400043c:	00178793          	addi	a5,a5,1
14000440:	0ff7f793          	zext.b	a5,a5
14000444:	00944703          	lbu	a4,9(s0)
14000448:	02e7f463          	bgeu	a5,a4,14000470 <spawnFood+0x90>
1400044c:	00379713          	slli	a4,a5,0x3
14000450:	00e40733          	add	a4,s0,a4
14000454:	00c72703          	lw	a4,12(a4)
14000458:	fee692e3          	bne	a3,a4,1400043c <spawnFood+0x5c>
1400045c:	00379713          	slli	a4,a5,0x3
14000460:	00e40733          	add	a4,s0,a4
14000464:	01072703          	lw	a4,16(a4)
14000468:	fce61ae3          	bne	a2,a4,1400043c <spawnFood+0x5c>
1400046c:	fff58593          	addi	a1,a1,-1
14000470:	00168693          	addi	a3,a3,1
14000474:	0ff6f693          	zext.b	a3,a3
14000478:	01000793          	li	a5,16
1400047c:	00f68a63          	beq	a3,a5,14000490 <spawnFood+0xb0>
14000480:	00158593          	addi	a1,a1,1
14000484:	00a5fe63          	bgeu	a1,a0,140004a0 <spawnFood+0xc0>
14000488:	00000793          	li	a5,0
1400048c:	fb9ff06f          	j	14000444 <spawnFood+0x64>
14000490:	00160613          	addi	a2,a2,1
14000494:	0ff67613          	zext.b	a2,a2
14000498:	00000693          	li	a3,0
1400049c:	fe5ff06f          	j	14000480 <spawnFood+0xa0>
140004a0:	00d42023          	sw	a3,0(s0)
140004a4:	00c42223          	sw	a2,4(s0)
140004a8:	00c12083          	lw	ra,12(sp)
140004ac:	00812403          	lw	s0,8(sp)
140004b0:	01010113          	addi	sp,sp,16
140004b4:	00008067          	ret

140004b8 <GameInit>:
140004b8:	ff010113          	addi	sp,sp,-16
140004bc:	00112623          	sw	ra,12(sp)
140004c0:	075bd737          	lui	a4,0x75bd
140004c4:	d1570713          	addi	a4,a4,-747 # 75bcd15 <_stack_top+0x75bbd15>
140004c8:	06e02a23          	sw	a4,116(zero) # 74 <randomSeed>
140004cc:	00050423          	sb	zero,8(a0)
140004d0:	00100713          	li	a4,1
140004d4:	00e504a3          	sb	a4,9(a0)
140004d8:	00050523          	sb	zero,10(a0)
140004dc:	00800713          	li	a4,8
140004e0:	00e52623          	sw	a4,12(a0)
140004e4:	00600713          	li	a4,6
140004e8:	00e52823          	sw	a4,16(a0)
140004ec:	20052623          	sw	zero,524(a0)
140004f0:	20052823          	sw	zero,528(a0)
140004f4:	eedff0ef          	jal	ra,140003e0 <spawnFood>
140004f8:	00c12083          	lw	ra,12(sp)
140004fc:	01010113          	addi	sp,sp,16
14000500:	00008067          	ret

14000504 <GameUpdate>:
14000504:	fd010113          	addi	sp,sp,-48
14000508:	02112623          	sw	ra,44(sp)
1400050c:	02812423          	sw	s0,40(sp)
14000510:	02912223          	sw	s1,36(sp)
14000514:	00050413          	mv	s0,a0
14000518:	00b12423          	sw	a1,8(sp)
1400051c:	00c12623          	sw	a2,12(sp)
14000520:	00a54783          	lbu	a5,10(a0)
14000524:	00379793          	slli	a5,a5,0x3
14000528:	00f507b3          	add	a5,a0,a5
1400052c:	20c52603          	lw	a2,524(a0)
14000530:	21052683          	lw	a3,528(a0)
14000534:	00c7a503          	lw	a0,12(a5)
14000538:	0107a583          	lw	a1,16(a5)
1400053c:	6fc000ef          	jal	ra,14000c38 <Vector2Add>
14000540:	00a12c23          	sw	a0,24(sp)
14000544:	00b12e23          	sw	a1,28(sp)
14000548:	01812483          	lw	s1,24(sp)
1400054c:	01048493          	addi	s1,s1,16
14000550:	41f4d793          	srai	a5,s1,0x1f
14000554:	01c7d793          	srli	a5,a5,0x1c
14000558:	00f484b3          	add	s1,s1,a5
1400055c:	00f4f493          	andi	s1,s1,15
14000560:	40f484b3          	sub	s1,s1,a5
14000564:	00912c23          	sw	s1,24(sp)
14000568:	00c00593          	li	a1,12
1400056c:	01c12503          	lw	a0,28(sp)
14000570:	00c50513          	addi	a0,a0,12
14000574:	625000ef          	jal	ra,14001398 <__modsi3>
14000578:	00a12e23          	sw	a0,28(sp)
1400057c:	00000793          	li	a5,0
14000580:	00c0006f          	j	1400058c <GameUpdate+0x88>
14000584:	00178793          	addi	a5,a5,1
14000588:	0ff7f793          	zext.b	a5,a5
1400058c:	00944703          	lbu	a4,9(s0)
14000590:	02e7f663          	bgeu	a5,a4,140005bc <GameUpdate+0xb8>
14000594:	00379713          	slli	a4,a5,0x3
14000598:	00e40733          	add	a4,s0,a4
1400059c:	00c72703          	lw	a4,12(a4)
140005a0:	fee492e3          	bne	s1,a4,14000584 <GameUpdate+0x80>
140005a4:	00379713          	slli	a4,a5,0x3
140005a8:	00e40733          	add	a4,s0,a4
140005ac:	01072703          	lw	a4,16(a4)
140005b0:	fce51ae3          	bne	a0,a4,14000584 <GameUpdate+0x80>
140005b4:	00200513          	li	a0,2
140005b8:	0380006f          	j	140005f0 <GameUpdate+0xec>
140005bc:	00042783          	lw	a5,0(s0)
140005c0:	04f48263          	beq	s1,a5,14000604 <GameUpdate+0x100>
140005c4:	00a44783          	lbu	a5,10(s0)
140005c8:	00178793          	addi	a5,a5,1
140005cc:	03f7f793          	andi	a5,a5,63
140005d0:	00f40523          	sb	a5,10(s0)
140005d4:	00379793          	slli	a5,a5,0x3
140005d8:	00f40433          	add	s0,s0,a5
140005dc:	01812783          	lw	a5,24(sp)
140005e0:	00f42623          	sw	a5,12(s0)
140005e4:	01c12783          	lw	a5,28(sp)
140005e8:	00f42823          	sw	a5,16(s0)
140005ec:	00000513          	li	a0,0
140005f0:	02c12083          	lw	ra,44(sp)
140005f4:	02812403          	lw	s0,40(sp)
140005f8:	02412483          	lw	s1,36(sp)
140005fc:	03010113          	addi	sp,sp,48
14000600:	00008067          	ret
14000604:	00442783          	lw	a5,4(s0)
14000608:	faf51ee3          	bne	a0,a5,140005c4 <GameUpdate+0xc0>
1400060c:	00844783          	lbu	a5,8(s0)
14000610:	00178793          	addi	a5,a5,1
14000614:	00f40423          	sb	a5,8(s0)
14000618:	03f00793          	li	a5,63
1400061c:	00e7f663          	bgeu	a5,a4,14000628 <GameUpdate+0x124>
14000620:	00100513          	li	a0,1
14000624:	fcdff06f          	j	140005f0 <GameUpdate+0xec>
14000628:	00170713          	addi	a4,a4,1
1400062c:	00e404a3          	sb	a4,9(s0)
14000630:	00040513          	mv	a0,s0
14000634:	dadff0ef          	jal	ra,140003e0 <spawnFood>
14000638:	f8dff06f          	j	140005c4 <GameUpdate+0xc0>

1400063c <GameFinish>:
1400063c:	00008067          	ret

14000640 <GetInput>:
14000640:	fe010113          	addi	sp,sp,-32
14000644:	00112e23          	sw	ra,28(sp)
14000648:	00050613          	mv	a2,a0
1400064c:	000103a3          	sb	zero,7(sp)
14000650:	00710593          	addi	a1,sp,7
14000654:	13001537          	lui	a0,0x13001
14000658:	57c000ef          	jal	ra,14000bd4 <UARTReadWait>
1400065c:	06050c63          	beqz	a0,140006d4 <GetInput+0x94>
14000660:	00714783          	lbu	a5,7(sp)
14000664:	07300713          	li	a4,115
14000668:	04e78863          	beq	a5,a4,140006b8 <GetInput+0x78>
1400066c:	02f76263          	bltu	a4,a5,14000690 <GetInput+0x50>
14000670:	06100713          	li	a4,97
14000674:	02e78a63          	beq	a5,a4,140006a8 <GetInput+0x68>
14000678:	06400713          	li	a4,100
1400067c:	04e79663          	bne	a5,a4,140006c8 <GetInput+0x88>
14000680:	00012423          	sw	zero,8(sp)
14000684:	00100793          	li	a5,1
14000688:	00f12623          	sw	a5,12(sp)
1400068c:	0500006f          	j	140006dc <GetInput+0x9c>
14000690:	07700713          	li	a4,119
14000694:	02e79a63          	bne	a5,a4,140006c8 <GetInput+0x88>
14000698:	00012423          	sw	zero,8(sp)
1400069c:	00100793          	li	a5,1
140006a0:	00f12623          	sw	a5,12(sp)
140006a4:	0380006f          	j	140006dc <GetInput+0x9c>
140006a8:	00012423          	sw	zero,8(sp)
140006ac:	fff00793          	li	a5,-1
140006b0:	00f12623          	sw	a5,12(sp)
140006b4:	0280006f          	j	140006dc <GetInput+0x9c>
140006b8:	00012423          	sw	zero,8(sp)
140006bc:	fff00793          	li	a5,-1
140006c0:	00f12623          	sw	a5,12(sp)
140006c4:	0180006f          	j	140006dc <GetInput+0x9c>
140006c8:	00012423          	sw	zero,8(sp)
140006cc:	00012623          	sw	zero,12(sp)
140006d0:	00c0006f          	j	140006dc <GetInput+0x9c>
140006d4:	00012423          	sw	zero,8(sp)
140006d8:	00012623          	sw	zero,12(sp)
140006dc:	00812503          	lw	a0,8(sp)
140006e0:	00c12583          	lw	a1,12(sp)
140006e4:	01c12083          	lw	ra,28(sp)
140006e8:	02010113          	addi	sp,sp,32
140006ec:	00008067          	ret

140006f0 <mini_strlen>:
140006f0:	00050713          	mv	a4,a0
140006f4:	00000513          	li	a0,0
140006f8:	0080006f          	j	14000700 <mini_strlen+0x10>
140006fc:	00150513          	addi	a0,a0,1 # 13001001 <_stack_top+0x13000001>
14000700:	00a707b3          	add	a5,a4,a0
14000704:	0007c783          	lbu	a5,0(a5)
14000708:	fe079ae3          	bnez	a5,140006fc <mini_strlen+0xc>
1400070c:	00008067          	ret

14000710 <mini_itoa>:
14000710:	fd010113          	addi	sp,sp,-48
14000714:	02112623          	sw	ra,44(sp)
14000718:	02812423          	sw	s0,40(sp)
1400071c:	02912223          	sw	s1,36(sp)
14000720:	03212023          	sw	s2,32(sp)
14000724:	01312e23          	sw	s3,28(sp)
14000728:	01412c23          	sw	s4,24(sp)
1400072c:	01512a23          	sw	s5,20(sp)
14000730:	01612823          	sw	s6,16(sp)
14000734:	01712623          	sw	s7,12(sp)
14000738:	00078a93          	mv	s5,a5
1400073c:	01000793          	li	a5,16
14000740:	12b7e663          	bltu	a5,a1,1400086c <mini_itoa+0x15c>
14000744:	00058913          	mv	s2,a1
14000748:	00060b13          	mv	s6,a2
1400074c:	00070993          	mv	s3,a4
14000750:	00054863          	bltz	a0,14000760 <mini_itoa+0x50>
14000754:	00000b93          	li	s7,0
14000758:	00098493          	mv	s1,s3
1400075c:	0440006f          	j	140007a0 <mini_itoa+0x90>
14000760:	00069863          	bnez	a3,14000770 <mini_itoa+0x60>
14000764:	40a00533          	neg	a0,a0
14000768:	00100b93          	li	s7,1
1400076c:	fedff06f          	j	14000758 <mini_itoa+0x48>
14000770:	00000b93          	li	s7,0
14000774:	fe5ff06f          	j	14000758 <mini_itoa+0x48>
14000778:	0ff57513          	zext.b	a0,a0
1400077c:	03050513          	addi	a0,a0,48
14000780:	0ff57793          	zext.b	a5,a0
14000784:	00148413          	addi	s0,s1,1
14000788:	00f48023          	sb	a5,0(s1)
1400078c:	00090593          	mv	a1,s2
14000790:	000a0513          	mv	a0,s4
14000794:	389000ef          	jal	ra,1400131c <__udivsi3>
14000798:	04a05063          	blez	a0,140007d8 <mini_itoa+0xc8>
1400079c:	00040493          	mv	s1,s0
140007a0:	00050a13          	mv	s4,a0
140007a4:	00090593          	mv	a1,s2
140007a8:	3bd000ef          	jal	ra,14001364 <__umodsi3>
140007ac:	00900793          	li	a5,9
140007b0:	fca7d4e3          	bge	a5,a0,14000778 <mini_itoa+0x68>
140007b4:	000b0e63          	beqz	s6,140007d0 <mini_itoa+0xc0>
140007b8:	04100793          	li	a5,65
140007bc:	00a787b3          	add	a5,a5,a0
140007c0:	0ff7f793          	zext.b	a5,a5
140007c4:	ff678793          	addi	a5,a5,-10
140007c8:	0ff7f793          	zext.b	a5,a5
140007cc:	fb9ff06f          	j	14000784 <mini_itoa+0x74>
140007d0:	06100793          	li	a5,97
140007d4:	fe9ff06f          	j	140007bc <mini_itoa+0xac>
140007d8:	413407b3          	sub	a5,s0,s3
140007dc:	0140006f          	j	140007f0 <mini_itoa+0xe0>
140007e0:	03000713          	li	a4,48
140007e4:	00e40023          	sb	a4,0(s0)
140007e8:	00178793          	addi	a5,a5,1
140007ec:	00140413          	addi	s0,s0,1
140007f0:	ff57e8e3          	bltu	a5,s5,140007e0 <mini_itoa+0xd0>
140007f4:	000b8863          	beqz	s7,14000804 <mini_itoa+0xf4>
140007f8:	02d00793          	li	a5,45
140007fc:	00f40023          	sb	a5,0(s0)
14000800:	00140413          	addi	s0,s0,1
14000804:	00040023          	sb	zero,0(s0)
14000808:	41340533          	sub	a0,s0,s3
1400080c:	00000713          	li	a4,0
14000810:	0280006f          	j	14000838 <mini_itoa+0x128>
14000814:	00e986b3          	add	a3,s3,a4
14000818:	0006c603          	lbu	a2,0(a3)
1400081c:	40e507b3          	sub	a5,a0,a4
14000820:	fff78793          	addi	a5,a5,-1
14000824:	00f987b3          	add	a5,s3,a5
14000828:	0007c583          	lbu	a1,0(a5)
1400082c:	00b68023          	sb	a1,0(a3)
14000830:	00c78023          	sb	a2,0(a5)
14000834:	00170713          	addi	a4,a4,1
14000838:	00155793          	srli	a5,a0,0x1
1400083c:	fcf76ce3          	bltu	a4,a5,14000814 <mini_itoa+0x104>
14000840:	02c12083          	lw	ra,44(sp)
14000844:	02812403          	lw	s0,40(sp)
14000848:	02412483          	lw	s1,36(sp)
1400084c:	02012903          	lw	s2,32(sp)
14000850:	01c12983          	lw	s3,28(sp)
14000854:	01812a03          	lw	s4,24(sp)
14000858:	01412a83          	lw	s5,20(sp)
1400085c:	01012b03          	lw	s6,16(sp)
14000860:	00c12b83          	lw	s7,12(sp)
14000864:	03010113          	addi	sp,sp,48
14000868:	00008067          	ret
1400086c:	00000513          	li	a0,0
14000870:	fd1ff06f          	j	14000840 <mini_itoa+0x130>

14000874 <_putc>:
14000874:	0045a703          	lw	a4,4(a1)
14000878:	0005a783          	lw	a5,0(a1)
1400087c:	40f707b3          	sub	a5,a4,a5
14000880:	00178793          	addi	a5,a5,1
14000884:	0085a683          	lw	a3,8(a1)
14000888:	02d7f063          	bgeu	a5,a3,140008a8 <_putc+0x34>
1400088c:	00170793          	addi	a5,a4,1
14000890:	00f5a223          	sw	a5,4(a1)
14000894:	00a70023          	sb	a0,0(a4)
14000898:	0045a783          	lw	a5,4(a1)
1400089c:	00078023          	sb	zero,0(a5)
140008a0:	00100513          	li	a0,1
140008a4:	00008067          	ret
140008a8:	00000513          	li	a0,0
140008ac:	00008067          	ret

140008b0 <_puts>:
140008b0:	00050813          	mv	a6,a0
140008b4:	00862783          	lw	a5,8(a2)
140008b8:	00462703          	lw	a4,4(a2)
140008bc:	00062683          	lw	a3,0(a2)
140008c0:	40d70733          	sub	a4,a4,a3
140008c4:	40e787b3          	sub	a5,a5,a4
140008c8:	fff78513          	addi	a0,a5,-1
140008cc:	00b56463          	bltu	a0,a1,140008d4 <_puts+0x24>
140008d0:	00058513          	mv	a0,a1
140008d4:	00000793          	li	a5,0
140008d8:	0200006f          	j	140008f8 <_puts+0x48>
140008dc:	00462703          	lw	a4,4(a2)
140008e0:	00170693          	addi	a3,a4,1
140008e4:	00d62223          	sw	a3,4(a2)
140008e8:	00f806b3          	add	a3,a6,a5
140008ec:	0006c683          	lbu	a3,0(a3)
140008f0:	00d70023          	sb	a3,0(a4)
140008f4:	00178793          	addi	a5,a5,1
140008f8:	fea7e2e3          	bltu	a5,a0,140008dc <_puts+0x2c>
140008fc:	00462783          	lw	a5,4(a2)
14000900:	00078023          	sb	zero,0(a5)
14000904:	00008067          	ret

14000908 <mini_vsnprintf>:
14000908:	fb010113          	addi	sp,sp,-80
1400090c:	04112623          	sw	ra,76(sp)
14000910:	04812423          	sw	s0,72(sp)
14000914:	04912223          	sw	s1,68(sp)
14000918:	00060413          	mv	s0,a2
1400091c:	00d12623          	sw	a3,12(sp)
14000920:	02a12a23          	sw	a0,52(sp)
14000924:	02a12c23          	sw	a0,56(sp)
14000928:	02b12e23          	sw	a1,60(sp)
1400092c:	0100006f          	j	1400093c <mini_vsnprintf+0x34>
14000930:	03410593          	addi	a1,sp,52
14000934:	f41ff0ef          	jal	ra,14000874 <_putc>
14000938:	00048413          	mv	s0,s1
1400093c:	00140493          	addi	s1,s0,1
14000940:	00044503          	lbu	a0,0(s0)
14000944:	16050663          	beqz	a0,14000ab0 <mini_vsnprintf+0x1a8>
14000948:	03812783          	lw	a5,56(sp)
1400094c:	03412703          	lw	a4,52(sp)
14000950:	40e787b3          	sub	a5,a5,a4
14000954:	00178793          	addi	a5,a5,1
14000958:	03c12703          	lw	a4,60(sp)
1400095c:	14e7fa63          	bgeu	a5,a4,14000ab0 <mini_vsnprintf+0x1a8>
14000960:	02500793          	li	a5,37
14000964:	fcf516e3          	bne	a0,a5,14000930 <mini_vsnprintf+0x28>
14000968:	00240413          	addi	s0,s0,2
1400096c:	0004c683          	lbu	a3,0(s1)
14000970:	03000793          	li	a5,48
14000974:	04f68463          	beq	a3,a5,140009bc <mini_vsnprintf+0xb4>
14000978:	00000793          	li	a5,0
1400097c:	00068513          	mv	a0,a3
14000980:	12068863          	beqz	a3,14000ab0 <mini_vsnprintf+0x1a8>
14000984:	07800713          	li	a4,120
14000988:	10d76e63          	bltu	a4,a3,14000aa4 <mini_vsnprintf+0x19c>
1400098c:	05800713          	li	a4,88
14000990:	10e6ea63          	bltu	a3,a4,14000aa4 <mini_vsnprintf+0x19c>
14000994:	fa868713          	addi	a4,a3,-88
14000998:	0ff77593          	zext.b	a1,a4
1400099c:	02000613          	li	a2,32
140009a0:	10b66263          	bltu	a2,a1,14000aa4 <mini_vsnprintf+0x19c>
140009a4:	00259713          	slli	a4,a1,0x2
140009a8:	14000637          	lui	a2,0x14000
140009ac:	08c60613          	addi	a2,a2,140 # 1400008c <scoreFormatText+0xc>
140009b0:	00c70733          	add	a4,a4,a2
140009b4:	00072703          	lw	a4,0(a4)
140009b8:	00070067          	jr	a4
140009bc:	0014c783          	lbu	a5,1(s1)
140009c0:	0e078863          	beqz	a5,14000ab0 <mini_vsnprintf+0x1a8>
140009c4:	fd078793          	addi	a5,a5,-48
140009c8:	0ff7f793          	zext.b	a5,a5
140009cc:	00900713          	li	a4,9
140009d0:	00f77463          	bgeu	a4,a5,140009d8 <mini_vsnprintf+0xd0>
140009d4:	00000793          	li	a5,0
140009d8:	00348413          	addi	s0,s1,3
140009dc:	0024c683          	lbu	a3,2(s1)
140009e0:	f9dff06f          	j	1400097c <mini_vsnprintf+0x74>
140009e4:	00c12503          	lw	a0,12(sp)
140009e8:	00450713          	addi	a4,a0,4
140009ec:	00e12623          	sw	a4,12(sp)
140009f0:	f8b68693          	addi	a3,a3,-117
140009f4:	01c10713          	addi	a4,sp,28
140009f8:	0016b693          	seqz	a3,a3
140009fc:	00000613          	li	a2,0
14000a00:	00a00593          	li	a1,10
14000a04:	00052503          	lw	a0,0(a0)
14000a08:	d09ff0ef          	jal	ra,14000710 <mini_itoa>
14000a0c:	00050593          	mv	a1,a0
14000a10:	03410613          	addi	a2,sp,52
14000a14:	01c10513          	addi	a0,sp,28
14000a18:	e99ff0ef          	jal	ra,140008b0 <_puts>
14000a1c:	f21ff06f          	j	1400093c <mini_vsnprintf+0x34>
14000a20:	00c12503          	lw	a0,12(sp)
14000a24:	00450713          	addi	a4,a0,4
14000a28:	00e12623          	sw	a4,12(sp)
14000a2c:	fa868613          	addi	a2,a3,-88
14000a30:	01c10713          	addi	a4,sp,28
14000a34:	00100693          	li	a3,1
14000a38:	00163613          	seqz	a2,a2
14000a3c:	01000593          	li	a1,16
14000a40:	00052503          	lw	a0,0(a0)
14000a44:	ccdff0ef          	jal	ra,14000710 <mini_itoa>
14000a48:	00050593          	mv	a1,a0
14000a4c:	03410613          	addi	a2,sp,52
14000a50:	01c10513          	addi	a0,sp,28
14000a54:	e5dff0ef          	jal	ra,140008b0 <_puts>
14000a58:	ee5ff06f          	j	1400093c <mini_vsnprintf+0x34>
14000a5c:	00c12783          	lw	a5,12(sp)
14000a60:	00478713          	addi	a4,a5,4
14000a64:	00e12623          	sw	a4,12(sp)
14000a68:	03410593          	addi	a1,sp,52
14000a6c:	0007c503          	lbu	a0,0(a5)
14000a70:	e05ff0ef          	jal	ra,14000874 <_putc>
14000a74:	ec9ff06f          	j	1400093c <mini_vsnprintf+0x34>
14000a78:	00c12783          	lw	a5,12(sp)
14000a7c:	00478713          	addi	a4,a5,4
14000a80:	00e12623          	sw	a4,12(sp)
14000a84:	0007a483          	lw	s1,0(a5)
14000a88:	00048513          	mv	a0,s1
14000a8c:	c65ff0ef          	jal	ra,140006f0 <mini_strlen>
14000a90:	00050593          	mv	a1,a0
14000a94:	03410613          	addi	a2,sp,52
14000a98:	00048513          	mv	a0,s1
14000a9c:	e15ff0ef          	jal	ra,140008b0 <_puts>
14000aa0:	e9dff06f          	j	1400093c <mini_vsnprintf+0x34>
14000aa4:	03410593          	addi	a1,sp,52
14000aa8:	dcdff0ef          	jal	ra,14000874 <_putc>
14000aac:	e91ff06f          	j	1400093c <mini_vsnprintf+0x34>
14000ab0:	03812503          	lw	a0,56(sp)
14000ab4:	03412783          	lw	a5,52(sp)
14000ab8:	40f50533          	sub	a0,a0,a5
14000abc:	04c12083          	lw	ra,76(sp)
14000ac0:	04812403          	lw	s0,72(sp)
14000ac4:	04412483          	lw	s1,68(sp)
14000ac8:	05010113          	addi	sp,sp,80
14000acc:	00008067          	ret

14000ad0 <mini_snprintf>:
14000ad0:	fc010113          	addi	sp,sp,-64
14000ad4:	00112e23          	sw	ra,28(sp)
14000ad8:	02d12623          	sw	a3,44(sp)
14000adc:	02e12823          	sw	a4,48(sp)
14000ae0:	02f12a23          	sw	a5,52(sp)
14000ae4:	03012c23          	sw	a6,56(sp)
14000ae8:	03112e23          	sw	a7,60(sp)
14000aec:	02c10693          	addi	a3,sp,44
14000af0:	00d12623          	sw	a3,12(sp)
14000af4:	e15ff0ef          	jal	ra,14000908 <mini_vsnprintf>
14000af8:	01c12083          	lw	ra,28(sp)
14000afc:	04010113          	addi	sp,sp,64
14000b00:	00008067          	ret

14000b04 <Setup>:
14000b04:	ff010113          	addi	sp,sp,-16
14000b08:	00112623          	sw	ra,12(sp)
14000b0c:	15800513          	li	a0,344
14000b10:	9a9ff0ef          	jal	ra,140004b8 <GameInit>
14000b14:	00c12083          	lw	ra,12(sp)
14000b18:	01010113          	addi	sp,sp,16
14000b1c:	00008067          	ret

14000b20 <Loop>:
14000b20:	fe010113          	addi	sp,sp,-32
14000b24:	00112e23          	sw	ra,28(sp)
14000b28:	00812c23          	sw	s0,24(sp)
14000b2c:	06400513          	li	a0,100
14000b30:	b11ff0ef          	jal	ra,14000640 <GetInput>
14000b34:	00a12423          	sw	a0,8(sp)
14000b38:	00b12623          	sw	a1,12(sp)
14000b3c:	00812583          	lw	a1,8(sp)
14000b40:	00c12603          	lw	a2,12(sp)
14000b44:	15800513          	li	a0,344
14000b48:	9bdff0ef          	jal	ra,14000504 <GameUpdate>
14000b4c:	00050413          	mv	s0,a0
14000b50:	00100793          	li	a5,1
14000b54:	02f50063          	beq	a0,a5,14000b74 <Loop+0x54>
14000b58:	00200793          	li	a5,2
14000b5c:	02f50463          	beq	a0,a5,14000b84 <Loop+0x64>
14000b60:	00040513          	mv	a0,s0
14000b64:	01c12083          	lw	ra,28(sp)
14000b68:	01812403          	lw	s0,24(sp)
14000b6c:	02010113          	addi	sp,sp,32
14000b70:	00008067          	ret
14000b74:	15800793          	li	a5,344
14000b78:	0087c503          	lbu	a0,8(a5)
14000b7c:	e94ff0ef          	jal	ra,14000210 <DrawGameWin>
14000b80:	fe1ff06f          	j	14000b60 <Loop+0x40>
14000b84:	15800793          	li	a5,344
14000b88:	0087c503          	lbu	a0,8(a5)
14000b8c:	f6cff0ef          	jal	ra,140002f8 <DrawGameLose>
14000b90:	fd1ff06f          	j	14000b60 <Loop+0x40>

14000b94 <Finish>:
14000b94:	ff010113          	addi	sp,sp,-16
14000b98:	00112623          	sw	ra,12(sp)
14000b9c:	15800513          	li	a0,344
14000ba0:	a9dff0ef          	jal	ra,1400063c <GameFinish>
14000ba4:	00c12083          	lw	ra,12(sp)
14000ba8:	01010113          	addi	sp,sp,16
14000bac:	00008067          	ret

14000bb0 <UARTInit>:
14000bb0:	00052023          	sw	zero,0(a0)
14000bb4:	00f00793          	li	a5,15
14000bb8:	00f52223          	sw	a5,4(a0)
14000bbc:	00b52023          	sw	a1,0(a0)
14000bc0:	00008067          	ret

14000bc4 <UARTRead>:
14000bc4:	00c52503          	lw	a0,12(a0)
14000bc8:	00a58023          	sb	a0,0(a1)
14000bcc:	10057513          	andi	a0,a0,256
14000bd0:	00008067          	ret

14000bd4 <UARTReadWait>:
14000bd4:	ff010113          	addi	sp,sp,-16
14000bd8:	00112623          	sw	ra,12(sp)
14000bdc:	00812423          	sw	s0,8(sp)
14000be0:	00912223          	sw	s1,4(sp)
14000be4:	01212023          	sw	s2,0(sp)
14000be8:	00050913          	mv	s2,a0
14000bec:	00058493          	mv	s1,a1
14000bf0:	00060413          	mv	s0,a2
14000bf4:	000000e7          	jalr	zero # 0 <GetMicros>
14000bf8:	00850433          	add	s0,a0,s0
14000bfc:	000000e7          	jalr	zero # 0 <GetMicros>
14000c00:	00857e63          	bgeu	a0,s0,14000c1c <UARTReadWait+0x48>
14000c04:	00048593          	mv	a1,s1
14000c08:	00090513          	mv	a0,s2
14000c0c:	fb9ff0ef          	jal	ra,14000bc4 <UARTRead>
14000c10:	fe0506e3          	beqz	a0,14000bfc <UARTReadWait+0x28>
14000c14:	00100513          	li	a0,1
14000c18:	0080006f          	j	14000c20 <UARTReadWait+0x4c>
14000c1c:	00000513          	li	a0,0
14000c20:	00c12083          	lw	ra,12(sp)
14000c24:	00812403          	lw	s0,8(sp)
14000c28:	00412483          	lw	s1,4(sp)
14000c2c:	00012903          	lw	s2,0(sp)
14000c30:	01010113          	addi	sp,sp,16
14000c34:	00008067          	ret

14000c38 <Vector2Add>:
14000c38:	fe010113          	addi	sp,sp,-32
14000c3c:	00a12423          	sw	a0,8(sp)
14000c40:	00b12623          	sw	a1,12(sp)
14000c44:	00c12023          	sw	a2,0(sp)
14000c48:	00d12223          	sw	a3,4(sp)
14000c4c:	00c50533          	add	a0,a0,a2
14000c50:	00a12823          	sw	a0,16(sp)
14000c54:	00d585b3          	add	a1,a1,a3
14000c58:	00b12a23          	sw	a1,20(sp)
14000c5c:	00a12c23          	sw	a0,24(sp)
14000c60:	00b12e23          	sw	a1,28(sp)
14000c64:	02010113          	addi	sp,sp,32
14000c68:	00008067          	ret

14000c6c <main>:
14000c6c:	ff010113          	addi	sp,sp,-16
14000c70:	00112623          	sw	ra,12(sp)
14000c74:	000305b7          	lui	a1,0x30
14000c78:	02b58593          	addi	a1,a1,43 # 3002b <_stack_top+0x2f02b>
14000c7c:	13001537          	lui	a0,0x13001
14000c80:	f31ff0ef          	jal	ra,14000bb0 <UARTInit>
14000c84:	e81ff0ef          	jal	ra,14000b04 <Setup>
14000c88:	e99ff0ef          	jal	ra,14000b20 <Loop>
14000c8c:	fe050ee3          	beqz	a0,14000c88 <main+0x1c>
14000c90:	f05ff0ef          	jal	ra,14000b94 <Finish>
14000c94:	00c12083          	lw	ra,12(sp)
14000c98:	01010113          	addi	sp,sp,16
14000c9c:	00008067          	ret

14000ca0 <__udivdi3>:
14000ca0:	fd010113          	addi	sp,sp,-48
14000ca4:	02812423          	sw	s0,40(sp)
14000ca8:	02112623          	sw	ra,44(sp)
14000cac:	02912223          	sw	s1,36(sp)
14000cb0:	03212023          	sw	s2,32(sp)
14000cb4:	01312e23          	sw	s3,28(sp)
14000cb8:	01412c23          	sw	s4,24(sp)
14000cbc:	01512a23          	sw	s5,20(sp)
14000cc0:	01612823          	sw	s6,16(sp)
14000cc4:	01712623          	sw	s7,12(sp)
14000cc8:	01812423          	sw	s8,8(sp)
14000ccc:	01912223          	sw	s9,4(sp)
14000cd0:	00050413          	mv	s0,a0
14000cd4:	12069c63          	bnez	a3,14000e0c <__udivdi3+0x16c>
14000cd8:	00060993          	mv	s3,a2
14000cdc:	00050493          	mv	s1,a0
14000ce0:	1cc5f263          	bgeu	a1,a2,14000ea4 <__udivdi3+0x204>
14000ce4:	000107b7          	lui	a5,0x10
14000ce8:	00058913          	mv	s2,a1
14000cec:	3ef66263          	bltu	a2,a5,140010d0 <__udivdi3+0x430>
14000cf0:	010007b7          	lui	a5,0x1000
14000cf4:	00f637b3          	sltu	a5,a2,a5
14000cf8:	40f007b3          	neg	a5,a5
14000cfc:	ff87f793          	andi	a5,a5,-8
14000d00:	01878793          	addi	a5,a5,24 # 1000018 <_stack_top+0xfff018>
14000d04:	00f656b3          	srl	a3,a2,a5
14000d08:	ebfff717          	auipc	a4,0xebfff
14000d0c:	37472703          	lw	a4,884(a4) # 7c <_GLOBAL_OFFSET_TABLE_+0x4>
14000d10:	00d70733          	add	a4,a4,a3
14000d14:	00074703          	lbu	a4,0(a4)
14000d18:	02000693          	li	a3,32
14000d1c:	00f707b3          	add	a5,a4,a5
14000d20:	40f68733          	sub	a4,a3,a5
14000d24:	00f68c63          	beq	a3,a5,14000d3c <__udivdi3+0x9c>
14000d28:	00e59933          	sll	s2,a1,a4
14000d2c:	00f457b3          	srl	a5,s0,a5
14000d30:	00e619b3          	sll	s3,a2,a4
14000d34:	0127e933          	or	s2,a5,s2
14000d38:	00e414b3          	sll	s1,s0,a4
14000d3c:	0109da93          	srli	s5,s3,0x10
14000d40:	000a8593          	mv	a1,s5
14000d44:	00090513          	mv	a0,s2
14000d48:	01099b13          	slli	s6,s3,0x10
14000d4c:	5d0000ef          	jal	ra,1400131c <__udivsi3>
14000d50:	010b5b13          	srli	s6,s6,0x10
14000d54:	00050593          	mv	a1,a0
14000d58:	00050413          	mv	s0,a0
14000d5c:	000b0513          	mv	a0,s6
14000d60:	590000ef          	jal	ra,140012f0 <__mulsi3>
14000d64:	00050793          	mv	a5,a0
14000d68:	000a8593          	mv	a1,s5
14000d6c:	00090513          	mv	a0,s2
14000d70:	00078913          	mv	s2,a5
14000d74:	5f0000ef          	jal	ra,14001364 <__umodsi3>
14000d78:	01051513          	slli	a0,a0,0x10
14000d7c:	0104d793          	srli	a5,s1,0x10
14000d80:	00a7e7b3          	or	a5,a5,a0
14000d84:	0127fc63          	bgeu	a5,s2,14000d9c <__udivdi3+0xfc>
14000d88:	013787b3          	add	a5,a5,s3
14000d8c:	fff40713          	addi	a4,s0,-1
14000d90:	0137e463          	bltu	a5,s3,14000d98 <__udivdi3+0xf8>
14000d94:	5527e263          	bltu	a5,s2,140012d8 <__udivdi3+0x638>
14000d98:	00070413          	mv	s0,a4
14000d9c:	41278933          	sub	s2,a5,s2
14000da0:	000a8593          	mv	a1,s5
14000da4:	00090513          	mv	a0,s2
14000da8:	574000ef          	jal	ra,1400131c <__udivsi3>
14000dac:	00050593          	mv	a1,a0
14000db0:	00050a13          	mv	s4,a0
14000db4:	000b0513          	mv	a0,s6
14000db8:	538000ef          	jal	ra,140012f0 <__mulsi3>
14000dbc:	00050793          	mv	a5,a0
14000dc0:	000a8593          	mv	a1,s5
14000dc4:	00090513          	mv	a0,s2
14000dc8:	01049493          	slli	s1,s1,0x10
14000dcc:	00078913          	mv	s2,a5
14000dd0:	594000ef          	jal	ra,14001364 <__umodsi3>
14000dd4:	01051513          	slli	a0,a0,0x10
14000dd8:	0104d493          	srli	s1,s1,0x10
14000ddc:	00a4e4b3          	or	s1,s1,a0
14000de0:	0124fe63          	bgeu	s1,s2,14000dfc <__udivdi3+0x15c>
14000de4:	009984b3          	add	s1,s3,s1
14000de8:	fffa0793          	addi	a5,s4,-1
14000dec:	0134e663          	bltu	s1,s3,14000df8 <__udivdi3+0x158>
14000df0:	ffea0a13          	addi	s4,s4,-2
14000df4:	0124e463          	bltu	s1,s2,14000dfc <__udivdi3+0x15c>
14000df8:	00078a13          	mv	s4,a5
14000dfc:	01041413          	slli	s0,s0,0x10
14000e00:	01446533          	or	a0,s0,s4
14000e04:	00000913          	li	s2,0
14000e08:	0100006f          	j	14000e18 <__udivdi3+0x178>
14000e0c:	04d5f263          	bgeu	a1,a3,14000e50 <__udivdi3+0x1b0>
14000e10:	00000913          	li	s2,0
14000e14:	00000513          	li	a0,0
14000e18:	02c12083          	lw	ra,44(sp)
14000e1c:	02812403          	lw	s0,40(sp)
14000e20:	02412483          	lw	s1,36(sp)
14000e24:	01c12983          	lw	s3,28(sp)
14000e28:	01812a03          	lw	s4,24(sp)
14000e2c:	01412a83          	lw	s5,20(sp)
14000e30:	01012b03          	lw	s6,16(sp)
14000e34:	00c12b83          	lw	s7,12(sp)
14000e38:	00812c03          	lw	s8,8(sp)
14000e3c:	00412c83          	lw	s9,4(sp)
14000e40:	00090593          	mv	a1,s2
14000e44:	02012903          	lw	s2,32(sp)
14000e48:	03010113          	addi	sp,sp,48
14000e4c:	00008067          	ret
14000e50:	000107b7          	lui	a5,0x10
14000e54:	28f6e663          	bltu	a3,a5,140010e0 <__udivdi3+0x440>
14000e58:	010007b7          	lui	a5,0x1000
14000e5c:	00f6b7b3          	sltu	a5,a3,a5
14000e60:	40f007b3          	neg	a5,a5
14000e64:	ff87f793          	andi	a5,a5,-8
14000e68:	01878793          	addi	a5,a5,24 # 1000018 <_stack_top+0xfff018>
14000e6c:	00f6d533          	srl	a0,a3,a5
14000e70:	ebfff717          	auipc	a4,0xebfff
14000e74:	20c72703          	lw	a4,524(a4) # 7c <_GLOBAL_OFFSET_TABLE_+0x4>
14000e78:	00a70733          	add	a4,a4,a0
14000e7c:	00074703          	lbu	a4,0(a4)
14000e80:	02000513          	li	a0,32
14000e84:	00f70733          	add	a4,a4,a5
14000e88:	40e50a33          	sub	s4,a0,a4
14000e8c:	28e51263          	bne	a0,a4,14001110 <__udivdi3+0x470>
14000e90:	40b6ee63          	bltu	a3,a1,140012ac <__udivdi3+0x60c>
14000e94:	00c43533          	sltu	a0,s0,a2
14000e98:	00154513          	xori	a0,a0,1
14000e9c:	00000913          	li	s2,0
14000ea0:	f79ff06f          	j	14000e18 <__udivdi3+0x178>
14000ea4:	00061463          	bnez	a2,14000eac <__udivdi3+0x20c>
14000ea8:	00100073          	ebreak
14000eac:	000107b7          	lui	a5,0x10
14000eb0:	10f66463          	bltu	a2,a5,14000fb8 <__udivdi3+0x318>
14000eb4:	010007b7          	lui	a5,0x1000
14000eb8:	00f637b3          	sltu	a5,a2,a5
14000ebc:	40f007b3          	neg	a5,a5
14000ec0:	ff87f793          	andi	a5,a5,-8
14000ec4:	01878793          	addi	a5,a5,24 # 1000018 <_stack_top+0xfff018>
14000ec8:	00f656b3          	srl	a3,a2,a5
14000ecc:	ebfff717          	auipc	a4,0xebfff
14000ed0:	1b072703          	lw	a4,432(a4) # 7c <_GLOBAL_OFFSET_TABLE_+0x4>
14000ed4:	00d70733          	add	a4,a4,a3
14000ed8:	00074a03          	lbu	s4,0(a4)
14000edc:	02000713          	li	a4,32
14000ee0:	00fa0a33          	add	s4,s4,a5
14000ee4:	414707b3          	sub	a5,a4,s4
14000ee8:	11471063          	bne	a4,s4,14000fe8 <__udivdi3+0x348>
14000eec:	01061a93          	slli	s5,a2,0x10
14000ef0:	40c58a33          	sub	s4,a1,a2
14000ef4:	01065b13          	srli	s6,a2,0x10
14000ef8:	010ada93          	srli	s5,s5,0x10
14000efc:	00100913          	li	s2,1
14000f00:	000b0593          	mv	a1,s6
14000f04:	000a0513          	mv	a0,s4
14000f08:	414000ef          	jal	ra,1400131c <__udivsi3>
14000f0c:	000a8593          	mv	a1,s5
14000f10:	00050413          	mv	s0,a0
14000f14:	3dc000ef          	jal	ra,140012f0 <__mulsi3>
14000f18:	00050793          	mv	a5,a0
14000f1c:	000b0593          	mv	a1,s6
14000f20:	000a0513          	mv	a0,s4
14000f24:	00078a13          	mv	s4,a5
14000f28:	43c000ef          	jal	ra,14001364 <__umodsi3>
14000f2c:	01051513          	slli	a0,a0,0x10
14000f30:	0104d793          	srli	a5,s1,0x10
14000f34:	00a7e7b3          	or	a5,a5,a0
14000f38:	0147fc63          	bgeu	a5,s4,14000f50 <__udivdi3+0x2b0>
14000f3c:	013787b3          	add	a5,a5,s3
14000f40:	fff40713          	addi	a4,s0,-1
14000f44:	0137e463          	bltu	a5,s3,14000f4c <__udivdi3+0x2ac>
14000f48:	3947ee63          	bltu	a5,s4,140012e4 <__udivdi3+0x644>
14000f4c:	00070413          	mv	s0,a4
14000f50:	41478a33          	sub	s4,a5,s4
14000f54:	000b0593          	mv	a1,s6
14000f58:	000a0513          	mv	a0,s4
14000f5c:	3c0000ef          	jal	ra,1400131c <__udivsi3>
14000f60:	000a8593          	mv	a1,s5
14000f64:	00050a93          	mv	s5,a0
14000f68:	388000ef          	jal	ra,140012f0 <__mulsi3>
14000f6c:	00050793          	mv	a5,a0
14000f70:	000b0593          	mv	a1,s6
14000f74:	000a0513          	mv	a0,s4
14000f78:	01049493          	slli	s1,s1,0x10
14000f7c:	00078a13          	mv	s4,a5
14000f80:	3e4000ef          	jal	ra,14001364 <__umodsi3>
14000f84:	01051513          	slli	a0,a0,0x10
14000f88:	0104d493          	srli	s1,s1,0x10
14000f8c:	00a4e4b3          	or	s1,s1,a0
14000f90:	0144fe63          	bgeu	s1,s4,14000fac <__udivdi3+0x30c>
14000f94:	009984b3          	add	s1,s3,s1
14000f98:	fffa8793          	addi	a5,s5,-1
14000f9c:	0134e663          	bltu	s1,s3,14000fa8 <__udivdi3+0x308>
14000fa0:	ffea8a93          	addi	s5,s5,-2
14000fa4:	0144e463          	bltu	s1,s4,14000fac <__udivdi3+0x30c>
14000fa8:	00078a93          	mv	s5,a5
14000fac:	01041413          	slli	s0,s0,0x10
14000fb0:	01546533          	or	a0,s0,s5
14000fb4:	e65ff06f          	j	14000e18 <__udivdi3+0x178>
14000fb8:	10063793          	sltiu	a5,a2,256
14000fbc:	0017c793          	xori	a5,a5,1
14000fc0:	00379793          	slli	a5,a5,0x3
14000fc4:	00f656b3          	srl	a3,a2,a5
14000fc8:	ebfff717          	auipc	a4,0xebfff
14000fcc:	0b472703          	lw	a4,180(a4) # 7c <_GLOBAL_OFFSET_TABLE_+0x4>
14000fd0:	00d70733          	add	a4,a4,a3
14000fd4:	00074a03          	lbu	s4,0(a4)
14000fd8:	02000713          	li	a4,32
14000fdc:	00fa0a33          	add	s4,s4,a5
14000fe0:	414707b3          	sub	a5,a4,s4
14000fe4:	f14704e3          	beq	a4,s4,14000eec <__udivdi3+0x24c>
14000fe8:	00f619b3          	sll	s3,a2,a5
14000fec:	0145dbb3          	srl	s7,a1,s4
14000ff0:	0109db13          	srli	s6,s3,0x10
14000ff4:	00f59733          	sll	a4,a1,a5
14000ff8:	01445a33          	srl	s4,s0,s4
14000ffc:	000b0593          	mv	a1,s6
14001000:	000b8513          	mv	a0,s7
14001004:	01099a93          	slli	s5,s3,0x10
14001008:	00f414b3          	sll	s1,s0,a5
1400100c:	00ea6a33          	or	s4,s4,a4
14001010:	010ada93          	srli	s5,s5,0x10
14001014:	308000ef          	jal	ra,1400131c <__udivsi3>
14001018:	00050593          	mv	a1,a0
1400101c:	00050913          	mv	s2,a0
14001020:	000a8513          	mv	a0,s5
14001024:	2cc000ef          	jal	ra,140012f0 <__mulsi3>
14001028:	00050413          	mv	s0,a0
1400102c:	000b0593          	mv	a1,s6
14001030:	000b8513          	mv	a0,s7
14001034:	330000ef          	jal	ra,14001364 <__umodsi3>
14001038:	01051513          	slli	a0,a0,0x10
1400103c:	010a5793          	srli	a5,s4,0x10
14001040:	00a7e7b3          	or	a5,a5,a0
14001044:	0087fe63          	bgeu	a5,s0,14001060 <__udivdi3+0x3c0>
14001048:	013787b3          	add	a5,a5,s3
1400104c:	fff90713          	addi	a4,s2,-1
14001050:	2937e063          	bltu	a5,s3,140012d0 <__udivdi3+0x630>
14001054:	2687fe63          	bgeu	a5,s0,140012d0 <__udivdi3+0x630>
14001058:	ffe90913          	addi	s2,s2,-2
1400105c:	013787b3          	add	a5,a5,s3
14001060:	40878433          	sub	s0,a5,s0
14001064:	000b0593          	mv	a1,s6
14001068:	00040513          	mv	a0,s0
1400106c:	2b0000ef          	jal	ra,1400131c <__udivsi3>
14001070:	00050593          	mv	a1,a0
14001074:	00050b93          	mv	s7,a0
14001078:	000a8513          	mv	a0,s5
1400107c:	274000ef          	jal	ra,140012f0 <__mulsi3>
14001080:	00050793          	mv	a5,a0
14001084:	000b0593          	mv	a1,s6
14001088:	00040513          	mv	a0,s0
1400108c:	010a1a13          	slli	s4,s4,0x10
14001090:	00078413          	mv	s0,a5
14001094:	2d0000ef          	jal	ra,14001364 <__umodsi3>
14001098:	01051513          	slli	a0,a0,0x10
1400109c:	010a5a13          	srli	s4,s4,0x10
140010a0:	00aa6a33          	or	s4,s4,a0
140010a4:	008a7e63          	bgeu	s4,s0,140010c0 <__udivdi3+0x420>
140010a8:	013a0a33          	add	s4,s4,s3
140010ac:	fffb8793          	addi	a5,s7,-1
140010b0:	213a6863          	bltu	s4,s3,140012c0 <__udivdi3+0x620>
140010b4:	208a7663          	bgeu	s4,s0,140012c0 <__udivdi3+0x620>
140010b8:	ffeb8b93          	addi	s7,s7,-2
140010bc:	013a0a33          	add	s4,s4,s3
140010c0:	01091913          	slli	s2,s2,0x10
140010c4:	408a0a33          	sub	s4,s4,s0
140010c8:	01796933          	or	s2,s2,s7
140010cc:	e35ff06f          	j	14000f00 <__udivdi3+0x260>
140010d0:	10063793          	sltiu	a5,a2,256
140010d4:	0017c793          	xori	a5,a5,1
140010d8:	00379793          	slli	a5,a5,0x3
140010dc:	c29ff06f          	j	14000d04 <__udivdi3+0x64>
140010e0:	1006b793          	sltiu	a5,a3,256
140010e4:	0017c793          	xori	a5,a5,1
140010e8:	00379793          	slli	a5,a5,0x3
140010ec:	00f6d533          	srl	a0,a3,a5
140010f0:	ebfff717          	auipc	a4,0xebfff
140010f4:	f8c72703          	lw	a4,-116(a4) # 7c <_GLOBAL_OFFSET_TABLE_+0x4>
140010f8:	00a70733          	add	a4,a4,a0
140010fc:	00074703          	lbu	a4,0(a4)
14001100:	02000513          	li	a0,32
14001104:	00f70733          	add	a4,a4,a5
14001108:	40e50a33          	sub	s4,a0,a4
1400110c:	d8e502e3          	beq	a0,a4,14000e90 <__udivdi3+0x1f0>
14001110:	00e65933          	srl	s2,a2,a4
14001114:	014696b3          	sll	a3,a3,s4
14001118:	00d96933          	or	s2,s2,a3
1400111c:	00e5db33          	srl	s6,a1,a4
14001120:	01095c93          	srli	s9,s2,0x10
14001124:	014597b3          	sll	a5,a1,s4
14001128:	00e45733          	srl	a4,s0,a4
1400112c:	000c8593          	mv	a1,s9
14001130:	000b0513          	mv	a0,s6
14001134:	01091c13          	slli	s8,s2,0x10
14001138:	00f76bb3          	or	s7,a4,a5
1400113c:	01461ab3          	sll	s5,a2,s4
14001140:	010c5c13          	srli	s8,s8,0x10
14001144:	1d8000ef          	jal	ra,1400131c <__udivsi3>
14001148:	00050593          	mv	a1,a0
1400114c:	00050993          	mv	s3,a0
14001150:	000c0513          	mv	a0,s8
14001154:	19c000ef          	jal	ra,140012f0 <__mulsi3>
14001158:	00050493          	mv	s1,a0
1400115c:	000c8593          	mv	a1,s9
14001160:	000b0513          	mv	a0,s6
14001164:	200000ef          	jal	ra,14001364 <__umodsi3>
14001168:	01051513          	slli	a0,a0,0x10
1400116c:	010bd793          	srli	a5,s7,0x10
14001170:	00a7e7b3          	or	a5,a5,a0
14001174:	0097fe63          	bgeu	a5,s1,14001190 <__udivdi3+0x4f0>
14001178:	012787b3          	add	a5,a5,s2
1400117c:	fff98713          	addi	a4,s3,-1
14001180:	1527e463          	bltu	a5,s2,140012c8 <__udivdi3+0x628>
14001184:	1497f263          	bgeu	a5,s1,140012c8 <__udivdi3+0x628>
14001188:	ffe98993          	addi	s3,s3,-2
1400118c:	012787b3          	add	a5,a5,s2
14001190:	409784b3          	sub	s1,a5,s1
14001194:	000c8593          	mv	a1,s9
14001198:	00048513          	mv	a0,s1
1400119c:	180000ef          	jal	ra,1400131c <__udivsi3>
140011a0:	00050593          	mv	a1,a0
140011a4:	00050b13          	mv	s6,a0
140011a8:	000c0513          	mv	a0,s8
140011ac:	144000ef          	jal	ra,140012f0 <__mulsi3>
140011b0:	00050793          	mv	a5,a0
140011b4:	000c8593          	mv	a1,s9
140011b8:	00048513          	mv	a0,s1
140011bc:	00078493          	mv	s1,a5
140011c0:	1a4000ef          	jal	ra,14001364 <__umodsi3>
140011c4:	010b9713          	slli	a4,s7,0x10
140011c8:	01051513          	slli	a0,a0,0x10
140011cc:	01075713          	srli	a4,a4,0x10
140011d0:	00a76733          	or	a4,a4,a0
140011d4:	00977e63          	bgeu	a4,s1,140011f0 <__udivdi3+0x550>
140011d8:	01270733          	add	a4,a4,s2
140011dc:	fffb0793          	addi	a5,s6,-1
140011e0:	0d276c63          	bltu	a4,s2,140012b8 <__udivdi3+0x618>
140011e4:	0c977a63          	bgeu	a4,s1,140012b8 <__udivdi3+0x618>
140011e8:	ffeb0b13          	addi	s6,s6,-2
140011ec:	01270733          	add	a4,a4,s2
140011f0:	00010e37          	lui	t3,0x10
140011f4:	01099993          	slli	s3,s3,0x10
140011f8:	0169e9b3          	or	s3,s3,s6
140011fc:	fffe0813          	addi	a6,t3,-1 # ffff <_stack_top+0xefff>
14001200:	0109f7b3          	and	a5,s3,a6
14001204:	010af833          	and	a6,s5,a6
14001208:	40970733          	sub	a4,a4,s1
1400120c:	0109d313          	srli	t1,s3,0x10
14001210:	010ada93          	srli	s5,s5,0x10
14001214:	00078513          	mv	a0,a5
14001218:	00080593          	mv	a1,a6
1400121c:	0d4000ef          	jal	ra,140012f0 <__mulsi3>
14001220:	00050893          	mv	a7,a0
14001224:	000a8593          	mv	a1,s5
14001228:	00078513          	mv	a0,a5
1400122c:	0c4000ef          	jal	ra,140012f0 <__mulsi3>
14001230:	00050793          	mv	a5,a0
14001234:	00080593          	mv	a1,a6
14001238:	00030513          	mv	a0,t1
1400123c:	0b4000ef          	jal	ra,140012f0 <__mulsi3>
14001240:	00050813          	mv	a6,a0
14001244:	000a8593          	mv	a1,s5
14001248:	00030513          	mv	a0,t1
1400124c:	0a4000ef          	jal	ra,140012f0 <__mulsi3>
14001250:	010787b3          	add	a5,a5,a6
14001254:	0108d693          	srli	a3,a7,0x10
14001258:	00d787b3          	add	a5,a5,a3
1400125c:	0107f463          	bgeu	a5,a6,14001264 <__udivdi3+0x5c4>
14001260:	01c50533          	add	a0,a0,t3
14001264:	0107d693          	srli	a3,a5,0x10
14001268:	00a686b3          	add	a3,a3,a0
1400126c:	02d76a63          	bltu	a4,a3,140012a0 <__udivdi3+0x600>
14001270:	00d70863          	beq	a4,a3,14001280 <__udivdi3+0x5e0>
14001274:	00098513          	mv	a0,s3
14001278:	00000913          	li	s2,0
1400127c:	b9dff06f          	j	14000e18 <__udivdi3+0x178>
14001280:	00010737          	lui	a4,0x10
14001284:	fff70713          	addi	a4,a4,-1 # ffff <_stack_top+0xefff>
14001288:	00e7f7b3          	and	a5,a5,a4
1400128c:	01079793          	slli	a5,a5,0x10
14001290:	00e8f8b3          	and	a7,a7,a4
14001294:	01441433          	sll	s0,s0,s4
14001298:	011787b3          	add	a5,a5,a7
1400129c:	fcf47ce3          	bgeu	s0,a5,14001274 <__udivdi3+0x5d4>
140012a0:	fff98513          	addi	a0,s3,-1
140012a4:	00000913          	li	s2,0
140012a8:	b71ff06f          	j	14000e18 <__udivdi3+0x178>
140012ac:	00000913          	li	s2,0
140012b0:	00100513          	li	a0,1
140012b4:	b65ff06f          	j	14000e18 <__udivdi3+0x178>
140012b8:	00078b13          	mv	s6,a5
140012bc:	f35ff06f          	j	140011f0 <__udivdi3+0x550>
140012c0:	00078b93          	mv	s7,a5
140012c4:	dfdff06f          	j	140010c0 <__udivdi3+0x420>
140012c8:	00070993          	mv	s3,a4
140012cc:	ec5ff06f          	j	14001190 <__udivdi3+0x4f0>
140012d0:	00070913          	mv	s2,a4
140012d4:	d8dff06f          	j	14001060 <__udivdi3+0x3c0>
140012d8:	ffe40413          	addi	s0,s0,-2
140012dc:	013787b3          	add	a5,a5,s3
140012e0:	abdff06f          	j	14000d9c <__udivdi3+0xfc>
140012e4:	ffe40413          	addi	s0,s0,-2
140012e8:	013787b3          	add	a5,a5,s3
140012ec:	c65ff06f          	j	14000f50 <__udivdi3+0x2b0>

140012f0 <__mulsi3>:
140012f0:	00050613          	mv	a2,a0
140012f4:	00000513          	li	a0,0
140012f8:	0015f693          	andi	a3,a1,1
140012fc:	00068463          	beqz	a3,14001304 <__mulsi3+0x14>
14001300:	00c50533          	add	a0,a0,a2
14001304:	0015d593          	srli	a1,a1,0x1
14001308:	00161613          	slli	a2,a2,0x1
1400130c:	fe0596e3          	bnez	a1,140012f8 <__mulsi3+0x8>
14001310:	00008067          	ret

14001314 <__divsi3>:
14001314:	06054063          	bltz	a0,14001374 <__umodsi3+0x10>
14001318:	0605c663          	bltz	a1,14001384 <__umodsi3+0x20>

1400131c <__udivsi3>:
1400131c:	00058613          	mv	a2,a1
14001320:	00050593          	mv	a1,a0
14001324:	fff00513          	li	a0,-1
14001328:	02060c63          	beqz	a2,14001360 <__udivsi3+0x44>
1400132c:	00100693          	li	a3,1
14001330:	00b67a63          	bgeu	a2,a1,14001344 <__udivsi3+0x28>
14001334:	00c05863          	blez	a2,14001344 <__udivsi3+0x28>
14001338:	00161613          	slli	a2,a2,0x1
1400133c:	00169693          	slli	a3,a3,0x1
14001340:	feb66ae3          	bltu	a2,a1,14001334 <__udivsi3+0x18>
14001344:	00000513          	li	a0,0
14001348:	00c5e663          	bltu	a1,a2,14001354 <__udivsi3+0x38>
1400134c:	40c585b3          	sub	a1,a1,a2
14001350:	00d56533          	or	a0,a0,a3
14001354:	0016d693          	srli	a3,a3,0x1
14001358:	00165613          	srli	a2,a2,0x1
1400135c:	fe0696e3          	bnez	a3,14001348 <__udivsi3+0x2c>
14001360:	00008067          	ret

14001364 <__umodsi3>:
14001364:	00008293          	mv	t0,ra
14001368:	fb5ff0ef          	jal	ra,1400131c <__udivsi3>
1400136c:	00058513          	mv	a0,a1
14001370:	00028067          	jr	t0
14001374:	40a00533          	neg	a0,a0
14001378:	00b04863          	bgtz	a1,14001388 <__umodsi3+0x24>
1400137c:	40b005b3          	neg	a1,a1
14001380:	f9dff06f          	j	1400131c <__udivsi3>
14001384:	40b005b3          	neg	a1,a1
14001388:	00008293          	mv	t0,ra
1400138c:	f91ff0ef          	jal	ra,1400131c <__udivsi3>
14001390:	40a00533          	neg	a0,a0
14001394:	00028067          	jr	t0

14001398 <__modsi3>:
14001398:	00008293          	mv	t0,ra
1400139c:	0005ca63          	bltz	a1,140013b0 <__modsi3+0x18>
140013a0:	00054c63          	bltz	a0,140013b8 <__modsi3+0x20>
140013a4:	f79ff0ef          	jal	ra,1400131c <__udivsi3>
140013a8:	00058513          	mv	a0,a1
140013ac:	00028067          	jr	t0
140013b0:	40b005b3          	neg	a1,a1
140013b4:	fe0558e3          	bgez	a0,140013a4 <__modsi3+0xc>
140013b8:	40a00533          	neg	a0,a0
140013bc:	f61ff0ef          	jal	ra,1400131c <__udivsi3>
140013c0:	40b00533          	neg	a0,a1
140013c4:	00028067          	jr	t0

140013c8 <strlen>:
140013c8:	00357793          	andi	a5,a0,3
140013cc:	02078463          	beqz	a5,140013f4 <strlen+0x2c>
140013d0:	00050793          	mv	a5,a0
140013d4:	0100006f          	j	140013e4 <strlen+0x1c>
140013d8:	00178793          	addi	a5,a5,1
140013dc:	0037f713          	andi	a4,a5,3
140013e0:	00070c63          	beqz	a4,140013f8 <strlen+0x30>
140013e4:	0007c703          	lbu	a4,0(a5)
140013e8:	fe0718e3          	bnez	a4,140013d8 <strlen+0x10>
140013ec:	40a78533          	sub	a0,a5,a0
140013f0:	00008067          	ret
140013f4:	00050793          	mv	a5,a0
140013f8:	feff05b7          	lui	a1,0xfeff0
140013fc:	80808637          	lui	a2,0x80808
14001400:	eff58593          	addi	a1,a1,-257 # fefefeff <_etext+0xeafeea8b>
14001404:	08060613          	addi	a2,a2,128 # 80808080 <_etext+0x6c806c0c>
14001408:	0007a683          	lw	a3,0(a5)
1400140c:	00078813          	mv	a6,a5
14001410:	00478793          	addi	a5,a5,4
14001414:	00b68733          	add	a4,a3,a1
14001418:	fff6c693          	not	a3,a3
1400141c:	00d77733          	and	a4,a4,a3
14001420:	00c77733          	and	a4,a4,a2
14001424:	fe0702e3          	beqz	a4,14001408 <strlen+0x40>
14001428:	ffc7c703          	lbu	a4,-4(a5)
1400142c:	02070463          	beqz	a4,14001454 <strlen+0x8c>
14001430:	ffd7c703          	lbu	a4,-3(a5)
14001434:	02070463          	beqz	a4,1400145c <strlen+0x94>
14001438:	ffe7c703          	lbu	a4,-2(a5)
1400143c:	02070663          	beqz	a4,14001468 <strlen+0xa0>
14001440:	fff7c703          	lbu	a4,-1(a5)
14001444:	fc0712e3          	bnez	a4,14001408 <strlen+0x40>
14001448:	40a80833          	sub	a6,a6,a0
1400144c:	00380513          	addi	a0,a6,3
14001450:	00008067          	ret
14001454:	40a80533          	sub	a0,a6,a0
14001458:	00008067          	ret
1400145c:	40a80833          	sub	a6,a6,a0
14001460:	00180513          	addi	a0,a6,1
14001464:	00008067          	ret
14001468:	40a80833          	sub	a6,a6,a0
1400146c:	00280513          	addi	a0,a6,2
14001470:	00008067          	ret

Disassembly of section .data:

00000000 <GetMicros>:
   0:	ff010113          	addi	sp,sp,-16
   4:	00112623          	sw	ra,12(sp)
   8:	c80027f3          	rdcycleh	a5
   c:	c0002573          	rdcycle	a0
  10:	c8002773          	rdcycleh	a4
  14:	fee79ae3          	bne	a5,a4,8 <GetMicros+0x8>
  18:	01f55713          	srli	a4,a0,0x1f
  1c:	00179693          	slli	a3,a5,0x1
  20:	00d766b3          	or	a3,a4,a3
  24:	00151713          	slli	a4,a0,0x1
  28:	00a705b3          	add	a1,a4,a0
  2c:	00e5b733          	sltu	a4,a1,a4
  30:	00f686b3          	add	a3,a3,a5
  34:	00d70733          	add	a4,a4,a3
  38:	01d5d693          	srli	a3,a1,0x1d
  3c:	00371713          	slli	a4,a4,0x3
  40:	00e6e733          	or	a4,a3,a4
  44:	00359593          	slli	a1,a1,0x3
  48:	00a58533          	add	a0,a1,a0
  4c:	00b535b3          	sltu	a1,a0,a1
  50:	00f70733          	add	a4,a4,a5
  54:	3e800613          	li	a2,1000
  58:	00000693          	li	a3,0
  5c:	00e585b3          	add	a1,a1,a4
  60:	14001097          	auipc	ra,0x14001
  64:	c40080e7          	jalr	-960(ra) # 14000ca0 <__udivdi3>
  68:	00c12083          	lw	ra,12(sp)
  6c:	01010113          	addi	sp,sp,16
  70:	00008067          	ret

00000074 <randomSeed>:
  74:	075bcd15                                ..[.
